
build/release/user/udp_demo.elf:     file format elf32-littleriscv
build/release/user/udp_demo.elf
architecture: riscv:rv32, flags 0x00000112:
EXEC_P, HAS_SYMS, D_PAGED
start address 0x80200000

Program Header:
0x70000003 off    0x00002030 vaddr 0x00000000 paddr 0x00000000 align 2**0
         filesz 0x0000004b memsz 0x00000000 flags r--
    LOAD off    0x00001000 vaddr 0x80200000 paddr 0x80200000 align 2**12
         filesz 0x00000b5c memsz 0x00000b5c flags r-x
    LOAD off    0x00002000 vaddr 0x80208000 paddr 0x80208000 align 2**12
         filesz 0x00000030 memsz 0x00000090 flags rw-

Sections:
Idx Name              Size      VMA       LMA       File off  Algn  Flags
  0 .text             00000b5c  80200000  80200000  00001000  2**3  CONTENTS, ALLOC, LOAD, READONLY, CODE
  1 .rodata           00000018  80208000  80208000  00002000  2**3  CONTENTS, ALLOC, LOAD, READONLY, DATA
  2 .data             00000018  80208018  80208018  00002018  2**3  CONTENTS, ALLOC, LOAD, DATA
  3 .bss              00000060  80208030  80208030  00002030  2**4  ALLOC
  4 .riscv.attributes 0000004b  00000000  00000000  00002030  2**0  CONTENTS, READONLY
  5 .comment          00000033  00000000  00000000  0000207b  2**0  CONTENTS, READONLY
SYMBOL TABLE:
80200000 l    d  .text	00000000 .text
80208000 l    d  .rodata	00000000 .rodata
80208018 l    d  .data	00000000 .data
80208030 l    d  .bss	00000000 .bss
00000000 l    d  .riscv.attributes	00000000 .riscv.attributes
00000000 l    d  .comment	00000000 .comment
00000000 l    df *ABS*	00000000 ccHA1aq0.o
00000000 l    df *ABS*	00000000 udp_demo.c
80200010 l     F .text	000000d0 crc32
802000e0 l     F .text	0000010c checksum
80208030 l     O .bss	00000042 txbuffer.1
80208080 l     O .bss	00000010 txdesc.0
00000000 l    df *ABS*	00000000 servers.c
00000000 l    df *ABS*	00000000 syscall.c
8020802c l     O .data	00000004 sc
00000000 l    df *ABS*	00000000 libc_a-memset.o
00000000 l    df *ABS*	00000000 libc_a-memcpy.o
00000000 l    df *ABS*	00000000 _bswapsi2.o
80208028 g     O .data	00000004 dest_udp_port
80200000 g       .text	00000000 app_entry
80200b28 g     F .text	00000034 .hidden __bswapsi2
80200a00 g     F .text	00000128 memcpy
80208018 g     O .data	00000004 earth
8020801c g     O .data	00000004 local_ip
802008b4 g     F .text	00000070 sys_send
80208024 g     O .data	00000004 dest_ip
80208020 g     O .data	00000004 local_udp_port
80200924 g     F .text	000000dc memset
802001ec g     F .text	00000694 main
80300000 g       *ABS*	00000000 __heap_end
80208090 g       .riscv.attributes	00000000 __heap_start
80200880 g     F .text	00000034 exit



Disassembly of section .text:

80200000 <app_entry>:
app_entry():
80200000:	00052503          	lw	a0,0(a0)
80200004:	80400137          	lui	sp,0x80400
80200008:	1e4000ef          	jal	802001ec <main>
8020000c:	075000ef          	jal	80200880 <exit>

80200010 <crc32>:
crc32():
80200010:	fc010113          	addi	sp,sp,-64 # 803fffc0 <__heap_end+0xfffc0>
80200014:	02112e23          	sw	ra,60(sp)
80200018:	02812c23          	sw	s0,56(sp)
8020001c:	04010413          	addi	s0,sp,64
80200020:	fca42623          	sw	a0,-52(s0)
80200024:	fcb42423          	sw	a1,-56(s0)
80200028:	fff00793          	li	a5,-1
8020002c:	fef42623          	sw	a5,-20(s0)
80200030:	fe042423          	sw	zero,-24(s0)
80200034:	0840006f          	j	802000b8 <crc32+0xa8>
80200038:	fe842783          	lw	a5,-24(s0)
8020003c:	fcc42703          	lw	a4,-52(s0)
80200040:	00f707b3          	add	a5,a4,a5
80200044:	0007c783          	lbu	a5,0(a5)
80200048:	fef42023          	sw	a5,-32(s0)
8020004c:	fec42703          	lw	a4,-20(s0)
80200050:	fe042783          	lw	a5,-32(s0)
80200054:	00f747b3          	xor	a5,a4,a5
80200058:	fef42623          	sw	a5,-20(s0)
8020005c:	00700793          	li	a5,7
80200060:	fef42223          	sw	a5,-28(s0)
80200064:	0400006f          	j	802000a4 <crc32+0x94>
80200068:	fec42783          	lw	a5,-20(s0)
8020006c:	0017f793          	andi	a5,a5,1
80200070:	40f007b3          	neg	a5,a5
80200074:	fcf42e23          	sw	a5,-36(s0)
80200078:	fec42783          	lw	a5,-20(s0)
8020007c:	0017d713          	srli	a4,a5,0x1
80200080:	fdc42683          	lw	a3,-36(s0)
80200084:	edb887b7          	lui	a5,0xedb88
80200088:	32078793          	addi	a5,a5,800 # edb88320 <__heap_end+0x6d888320>
8020008c:	00f6f7b3          	and	a5,a3,a5
80200090:	00f747b3          	xor	a5,a4,a5
80200094:	fef42623          	sw	a5,-20(s0)
80200098:	fe442783          	lw	a5,-28(s0)
8020009c:	fff78793          	addi	a5,a5,-1
802000a0:	fef42223          	sw	a5,-28(s0)
802000a4:	fe442783          	lw	a5,-28(s0)
802000a8:	fc07d0e3          	bgez	a5,80200068 <crc32+0x58>
802000ac:	fe842783          	lw	a5,-24(s0)
802000b0:	00178793          	addi	a5,a5,1
802000b4:	fef42423          	sw	a5,-24(s0)
802000b8:	fe842783          	lw	a5,-24(s0)
802000bc:	fc842703          	lw	a4,-56(s0)
802000c0:	f6e7ece3          	bltu	a5,a4,80200038 <crc32+0x28>
802000c4:	fec42783          	lw	a5,-20(s0)
802000c8:	fff7c793          	not	a5,a5
802000cc:	00078513          	mv	a0,a5
802000d0:	03c12083          	lw	ra,60(sp)
802000d4:	03812403          	lw	s0,56(sp)
802000d8:	04010113          	addi	sp,sp,64
802000dc:	00008067          	ret

802000e0 <checksum>:
checksum():
802000e0:	fd010113          	addi	sp,sp,-48
802000e4:	02112623          	sw	ra,44(sp)
802000e8:	02812423          	sw	s0,40(sp)
802000ec:	03010413          	addi	s0,sp,48
802000f0:	fca42e23          	sw	a0,-36(s0)
802000f4:	fcb42c23          	sw	a1,-40(s0)
802000f8:	fcc42a23          	sw	a2,-44(s0)
802000fc:	fcd42823          	sw	a3,-48(s0)
80200100:	fd442783          	lw	a5,-44(s0)
80200104:	0017d793          	srli	a5,a5,0x1
80200108:	fcf42a23          	sw	a5,-44(s0)
8020010c:	fe042623          	sw	zero,-20(s0)
80200110:	0540006f          	j	80200164 <checksum+0x84>
80200114:	fec42783          	lw	a5,-20(s0)
80200118:	00179793          	slli	a5,a5,0x1
8020011c:	00078713          	mv	a4,a5
80200120:	fd842783          	lw	a5,-40(s0)
80200124:	00e787b3          	add	a5,a5,a4
80200128:	0007c783          	lbu	a5,0(a5)
8020012c:	00879793          	slli	a5,a5,0x8
80200130:	fec42703          	lw	a4,-20(s0)
80200134:	00171713          	slli	a4,a4,0x1
80200138:	00170713          	addi	a4,a4,1
8020013c:	fd842683          	lw	a3,-40(s0)
80200140:	00e68733          	add	a4,a3,a4
80200144:	00074703          	lbu	a4,0(a4)
80200148:	00e7e7b3          	or	a5,a5,a4
8020014c:	fdc42703          	lw	a4,-36(s0)
80200150:	00f707b3          	add	a5,a4,a5
80200154:	fcf42e23          	sw	a5,-36(s0)
80200158:	fec42783          	lw	a5,-20(s0)
8020015c:	00178793          	addi	a5,a5,1
80200160:	fef42623          	sw	a5,-20(s0)
80200164:	fec42783          	lw	a5,-20(s0)
80200168:	fd442703          	lw	a4,-44(s0)
8020016c:	fae7e4e3          	bltu	a5,a4,80200114 <checksum+0x34>
80200170:	0200006f          	j	80200190 <checksum+0xb0>
80200174:	fdc42783          	lw	a5,-36(s0)
80200178:	01079713          	slli	a4,a5,0x10
8020017c:	01075713          	srli	a4,a4,0x10
80200180:	fdc42783          	lw	a5,-36(s0)
80200184:	0107d793          	srli	a5,a5,0x10
80200188:	00f707b3          	add	a5,a4,a5
8020018c:	fcf42e23          	sw	a5,-36(s0)
80200190:	fdc42783          	lw	a5,-36(s0)
80200194:	0107d793          	srli	a5,a5,0x10
80200198:	fc079ee3          	bnez	a5,80200174 <checksum+0x94>
8020019c:	fd042783          	lw	a5,-48(s0)
802001a0:	02078663          	beqz	a5,802001cc <checksum+0xec>
802001a4:	fdc42783          	lw	a5,-36(s0)
802001a8:	fff7c793          	not	a5,a5
802001ac:	01079793          	slli	a5,a5,0x10
802001b0:	0107d793          	srli	a5,a5,0x10
802001b4:	fcf42e23          	sw	a5,-36(s0)
802001b8:	fdc42783          	lw	a5,-36(s0)
802001bc:	00079863          	bnez	a5,802001cc <checksum+0xec>
802001c0:	000107b7          	lui	a5,0x10
802001c4:	fff78793          	addi	a5,a5,-1 # ffff <app_entry-0x801f0001>
802001c8:	fcf42e23          	sw	a5,-36(s0)
802001cc:	fdc42783          	lw	a5,-36(s0)
802001d0:	01079793          	slli	a5,a5,0x10
802001d4:	0107d793          	srli	a5,a5,0x10
802001d8:	00078513          	mv	a0,a5
802001dc:	02c12083          	lw	ra,44(sp)
802001e0:	02812403          	lw	s0,40(sp)
802001e4:	03010113          	addi	sp,sp,48
802001e8:	00008067          	ret

802001ec <main>:
main():
802001ec:	f9010113          	addi	sp,sp,-112
802001f0:	06112623          	sw	ra,108(sp)
802001f4:	06812423          	sw	s0,104(sp)
802001f8:	06912223          	sw	s1,100(sp)
802001fc:	07010413          	addi	s0,sp,112
80200200:	fa040793          	addi	a5,s0,-96
80200204:	04200713          	li	a4,66
80200208:	00070613          	mv	a2,a4
8020020c:	00000593          	li	a1,0
80200210:	00078513          	mv	a0,a5
80200214:	710000ef          	jal	80200924 <memset>
80200218:	512757b7          	lui	a5,0x51275
8020021c:	89878793          	addi	a5,a5,-1896 # 51274898 <app_entry-0x2ef8b768>
80200220:	faf42023          	sw	a5,-96(s0)
80200224:	000027b7          	lui	a5,0x2
80200228:	e5378793          	addi	a5,a5,-429 # 1e53 <app_entry-0x801fe1ad>
8020022c:	faf41223          	sh	a5,-92(s0)
80200230:	ffffe7b7          	lui	a5,0xffffe
80200234:	21078793          	addi	a5,a5,528 # ffffe210 <__heap_end+0x7fcfe210>
80200238:	faf41323          	sh	a5,-90(s0)
8020023c:	0d500793          	li	a5,213
80200240:	faf41423          	sh	a5,-88(s0)
80200244:	fa041523          	sh	zero,-86(s0)
80200248:	00800793          	li	a5,8
8020024c:	faf41623          	sh	a5,-84(s0)
80200250:	04500793          	li	a5,69
80200254:	faf40723          	sb	a5,-82(s0)
80200258:	000037b7          	lui	a5,0x3
8020025c:	40078793          	addi	a5,a5,1024 # 3400 <app_entry-0x801fcc00>
80200260:	faf41823          	sh	a5,-80(s0)
80200264:	04000793          	li	a5,64
80200268:	faf41a23          	sh	a5,-76(s0)
8020026c:	04000793          	li	a5,64
80200270:	faf40b23          	sb	a5,-74(s0)
80200274:	01100793          	li	a5,17
80200278:	faf40ba3          	sb	a5,-73(s0)
8020027c:	802087b7          	lui	a5,0x80208
80200280:	01c7a783          	lw	a5,28(a5) # 8020801c <local_ip>
80200284:	00078513          	mv	a0,a5
80200288:	0a1000ef          	jal	80200b28 <__bswapsi2>
8020028c:	00050793          	mv	a5,a0
80200290:	01079713          	slli	a4,a5,0x10
80200294:	01075713          	srli	a4,a4,0x10
80200298:	fba45683          	lhu	a3,-70(s0)
8020029c:	0006f693          	andi	a3,a3,0
802002a0:	00e6e733          	or	a4,a3,a4
802002a4:	fae41d23          	sh	a4,-70(s0)
802002a8:	0107d793          	srli	a5,a5,0x10
802002ac:	fbc45703          	lhu	a4,-68(s0)
802002b0:	00077713          	andi	a4,a4,0
802002b4:	00f767b3          	or	a5,a4,a5
802002b8:	faf41e23          	sh	a5,-68(s0)
802002bc:	802087b7          	lui	a5,0x80208
802002c0:	0247a783          	lw	a5,36(a5) # 80208024 <dest_ip>
802002c4:	00078513          	mv	a0,a5
802002c8:	061000ef          	jal	80200b28 <__bswapsi2>
802002cc:	00050793          	mv	a5,a0
802002d0:	01079713          	slli	a4,a5,0x10
802002d4:	01075713          	srli	a4,a4,0x10
802002d8:	fbe45683          	lhu	a3,-66(s0)
802002dc:	0006f693          	andi	a3,a3,0
802002e0:	00e6e733          	or	a4,a3,a4
802002e4:	fae41f23          	sh	a4,-66(s0)
802002e8:	0107d793          	srli	a5,a5,0x10
802002ec:	fc045703          	lhu	a4,-64(s0)
802002f0:	00077713          	andi	a4,a4,0
802002f4:	00f767b3          	or	a5,a4,a5
802002f8:	fcf41023          	sh	a5,-64(s0)
802002fc:	802087b7          	lui	a5,0x80208
80200300:	0207a783          	lw	a5,32(a5) # 80208020 <local_udp_port>
80200304:	01079793          	slli	a5,a5,0x10
80200308:	0107d793          	srli	a5,a5,0x10
8020030c:	00879713          	slli	a4,a5,0x8
80200310:	0087d793          	srli	a5,a5,0x8
80200314:	00f767b3          	or	a5,a4,a5
80200318:	01079793          	slli	a5,a5,0x10
8020031c:	0107d793          	srli	a5,a5,0x10
80200320:	fcf41123          	sh	a5,-62(s0)
80200324:	802087b7          	lui	a5,0x80208
80200328:	0287a783          	lw	a5,40(a5) # 80208028 <dest_udp_port>
8020032c:	01079793          	slli	a5,a5,0x10
80200330:	0107d793          	srli	a5,a5,0x10
80200334:	00879713          	slli	a4,a5,0x8
80200338:	0087d793          	srli	a5,a5,0x8
8020033c:	00f767b3          	or	a5,a4,a5
80200340:	01079793          	slli	a5,a5,0x10
80200344:	0107d793          	srli	a5,a5,0x10
80200348:	fcf41223          	sh	a5,-60(s0)
8020034c:	000027b7          	lui	a5,0x2
80200350:	fcf41323          	sh	a5,-58(s0)
80200354:	802087b7          	lui	a5,0x80208
80200358:	00078793          	mv	a5,a5
8020035c:	0007d703          	lhu	a4,0(a5) # 80208000 <__bswapsi2+0x74d8>
80200360:	00070f13          	mv	t5,a4
80200364:	0027d703          	lhu	a4,2(a5)
80200368:	00070e93          	mv	t4,a4
8020036c:	0047d703          	lhu	a4,4(a5)
80200370:	00070e13          	mv	t3,a4
80200374:	0067d703          	lhu	a4,6(a5)
80200378:	00070313          	mv	t1,a4
8020037c:	0087d703          	lhu	a4,8(a5)
80200380:	00070893          	mv	a7,a4
80200384:	00a7d703          	lhu	a4,10(a5)
80200388:	00070813          	mv	a6,a4
8020038c:	00c7d703          	lhu	a4,12(a5)
80200390:	00070513          	mv	a0,a4
80200394:	00e7d703          	lhu	a4,14(a5)
80200398:	00070593          	mv	a1,a4
8020039c:	0107d703          	lhu	a4,16(a5)
802003a0:	00070613          	mv	a2,a4
802003a4:	0127d703          	lhu	a4,18(a5)
802003a8:	00070693          	mv	a3,a4
802003ac:	0147d703          	lhu	a4,20(a5)
802003b0:	0167d783          	lhu	a5,22(a5)
802003b4:	fde41523          	sh	t5,-54(s0)
802003b8:	fdd41623          	sh	t4,-52(s0)
802003bc:	fdc41723          	sh	t3,-50(s0)
802003c0:	fc641823          	sh	t1,-48(s0)
802003c4:	fd141923          	sh	a7,-46(s0)
802003c8:	fd041a23          	sh	a6,-44(s0)
802003cc:	fca41b23          	sh	a0,-42(s0)
802003d0:	fcb41c23          	sh	a1,-40(s0)
802003d4:	fcc41d23          	sh	a2,-38(s0)
802003d8:	fcd41e23          	sh	a3,-36(s0)
802003dc:	fce41f23          	sh	a4,-34(s0)
802003e0:	fef41023          	sh	a5,-32(s0)
802003e4:	fa040793          	addi	a5,s0,-96
802003e8:	00e78793          	addi	a5,a5,14
802003ec:	00100693          	li	a3,1
802003f0:	01400613          	li	a2,20
802003f4:	00078593          	mv	a1,a5
802003f8:	00000513          	li	a0,0
802003fc:	ce5ff0ef          	jal	802000e0 <checksum>
80200400:	00050793          	mv	a5,a0
80200404:	00879713          	slli	a4,a5,0x8
80200408:	0087d793          	srli	a5,a5,0x8
8020040c:	00f767b3          	or	a5,a4,a5
80200410:	01079793          	slli	a5,a5,0x10
80200414:	0107d793          	srli	a5,a5,0x10
80200418:	faf41c23          	sh	a5,-72(s0)
8020041c:	fb842783          	lw	a5,-72(s0)
80200420:	0107d793          	srli	a5,a5,0x10
80200424:	fbc42703          	lw	a4,-68(s0)
80200428:	01071713          	slli	a4,a4,0x10
8020042c:	01075713          	srli	a4,a4,0x10
80200430:	01071713          	slli	a4,a4,0x10
80200434:	00f767b3          	or	a5,a4,a5
80200438:	f8f42a23          	sw	a5,-108(s0)
8020043c:	fbc42783          	lw	a5,-68(s0)
80200440:	0107d793          	srli	a5,a5,0x10
80200444:	fc042703          	lw	a4,-64(s0)
80200448:	01071713          	slli	a4,a4,0x10
8020044c:	01075713          	srli	a4,a4,0x10
80200450:	01071713          	slli	a4,a4,0x10
80200454:	00f767b3          	or	a5,a4,a5
80200458:	f8f42c23          	sw	a5,-104(s0)
8020045c:	f8040e23          	sb	zero,-100(s0)
80200460:	fb744783          	lbu	a5,-73(s0)
80200464:	f8f40ea3          	sb	a5,-99(s0)
80200468:	fc645783          	lhu	a5,-58(s0)
8020046c:	f8f41f23          	sh	a5,-98(s0)
80200470:	f9440793          	addi	a5,s0,-108
80200474:	00000693          	li	a3,0
80200478:	00c00613          	li	a2,12
8020047c:	00078593          	mv	a1,a5
80200480:	00000513          	li	a0,0
80200484:	c5dff0ef          	jal	802000e0 <checksum>
80200488:	00050793          	mv	a5,a0
8020048c:	fef42623          	sw	a5,-20(s0)
80200490:	fa040793          	addi	a5,s0,-96
80200494:	02278793          	addi	a5,a5,34
80200498:	00100693          	li	a3,1
8020049c:	02000613          	li	a2,32
802004a0:	00078593          	mv	a1,a5
802004a4:	fec42503          	lw	a0,-20(s0)
802004a8:	c39ff0ef          	jal	802000e0 <checksum>
802004ac:	00050793          	mv	a5,a0
802004b0:	00879713          	slli	a4,a5,0x8
802004b4:	0087d793          	srli	a5,a5,0x8
802004b8:	00f767b3          	or	a5,a4,a5
802004bc:	01079793          	slli	a5,a5,0x10
802004c0:	0107d793          	srli	a5,a5,0x10
802004c4:	fcf41423          	sh	a5,-56(s0)
802004c8:	802087b7          	lui	a5,0x80208
802004cc:	0187a783          	lw	a5,24(a5) # 80208018 <earth>
802004d0:	0307a783          	lw	a5,48(a5)
802004d4:	12079663          	bnez	a5,80200600 <main+0x414>
802004d8:	900017b7          	lui	a5,0x90001
802004dc:	fef42423          	sw	a5,-24(s0)
802004e0:	fe842783          	lw	a5,-24(s0)
802004e4:	00078693          	mv	a3,a5
802004e8:	fa040793          	addi	a5,s0,-96
802004ec:	04200713          	li	a4,66
802004f0:	00070613          	mv	a2,a4
802004f4:	00078593          	mv	a1,a5
802004f8:	00068513          	mv	a0,a3
802004fc:	504000ef          	jal	80200a00 <memcpy>
80200500:	04200793          	li	a5,66
80200504:	fef42223          	sw	a5,-28(s0)
80200508:	fe842783          	lw	a5,-24(s0)
8020050c:	00878693          	addi	a3,a5,8 # 90001008 <__heap_end+0xfd01008>
80200510:	fe442783          	lw	a5,-28(s0)
80200514:	ff878613          	addi	a2,a5,-8
80200518:	fe842703          	lw	a4,-24(s0)
8020051c:	fe442783          	lw	a5,-28(s0)
80200520:	00f704b3          	add	s1,a4,a5
80200524:	00060593          	mv	a1,a2
80200528:	00068513          	mv	a0,a3
8020052c:	ae5ff0ef          	jal	80200010 <crc32>
80200530:	00050793          	mv	a5,a0
80200534:	00f4a023          	sw	a5,0(s1)
80200538:	00000013          	nop
8020053c:	802087b7          	lui	a5,0x80208
80200540:	0187a783          	lw	a5,24(a5) # 80208018 <earth>
80200544:	0307a703          	lw	a4,48(a5)
80200548:	00100793          	li	a5,1
8020054c:	00f71863          	bne	a4,a5,8020055c <main+0x370>
80200550:	410007b7          	lui	a5,0x41000
80200554:	01c78793          	addi	a5,a5,28 # 4100001c <app_entry-0x3f1fffe4>
80200558:	00c0006f          	j	80200564 <main+0x378>
8020055c:	f00027b7          	lui	a5,0xf0002
80200560:	01c78793          	addi	a5,a5,28 # f000201c <__heap_end+0x6fd0201c>
80200564:	0007a783          	lw	a5,0(a5)
80200568:	fc078ae3          	beqz	a5,8020053c <main+0x350>
8020056c:	802087b7          	lui	a5,0x80208
80200570:	0187a783          	lw	a5,24(a5) # 80208018 <earth>
80200574:	0307a703          	lw	a4,48(a5)
80200578:	00100793          	li	a5,1
8020057c:	00f71863          	bne	a4,a5,8020058c <main+0x3a0>
80200580:	410007b7          	lui	a5,0x41000
80200584:	02478793          	addi	a5,a5,36 # 41000024 <app_entry-0x3f1fffdc>
80200588:	00c0006f          	j	80200594 <main+0x3a8>
8020058c:	f00027b7          	lui	a5,0xf0002
80200590:	02478793          	addi	a5,a5,36 # f0002024 <__heap_end+0x6fd02024>
80200594:	0007a023          	sw	zero,0(a5)
80200598:	802087b7          	lui	a5,0x80208
8020059c:	0187a783          	lw	a5,24(a5) # 80208018 <earth>
802005a0:	0307a703          	lw	a4,48(a5)
802005a4:	00100793          	li	a5,1
802005a8:	00f71863          	bne	a4,a5,802005b8 <main+0x3cc>
802005ac:	410007b7          	lui	a5,0x41000
802005b0:	02878793          	addi	a5,a5,40 # 41000028 <app_entry-0x3f1fffd8>
802005b4:	00c0006f          	j	802005c0 <main+0x3d4>
802005b8:	f00027b7          	lui	a5,0xf0002
802005bc:	02878793          	addi	a5,a5,40 # f0002028 <__heap_end+0x6fd02028>
802005c0:	fe442703          	lw	a4,-28(s0)
802005c4:	00470713          	addi	a4,a4,4
802005c8:	00e7a023          	sw	a4,0(a5)
802005cc:	802087b7          	lui	a5,0x80208
802005d0:	0187a783          	lw	a5,24(a5) # 80208018 <earth>
802005d4:	0307a703          	lw	a4,48(a5)
802005d8:	00100793          	li	a5,1
802005dc:	00f71863          	bne	a4,a5,802005ec <main+0x400>
802005e0:	410007b7          	lui	a5,0x41000
802005e4:	01878793          	addi	a5,a5,24 # 41000018 <app_entry-0x3f1fffe8>
802005e8:	00c0006f          	j	802005f4 <main+0x408>
802005ec:	f00027b7          	lui	a5,0xf0002
802005f0:	01878793          	addi	a5,a5,24 # f0002018 <__heap_end+0x6fd02018>
802005f4:	00100713          	li	a4,1
802005f8:	00e7a023          	sw	a4,0(a5)
802005fc:	2680006f          	j	80200864 <main+0x678>
80200600:	300187b7          	lui	a5,0x30018
80200604:	00478793          	addi	a5,a5,4 # 30018004 <app_entry-0x501e7ffc>
80200608:	00600713          	li	a4,6
8020060c:	00e7a023          	sw	a4,0(a5)
80200610:	802087b7          	lui	a5,0x80208
80200614:	0187a783          	lw	a5,24(a5) # 80208018 <earth>
80200618:	0307a703          	lw	a4,48(a5)
8020061c:	00100793          	li	a5,1
80200620:	00f71663          	bne	a4,a5,8020062c <main+0x440>
80200624:	410007b7          	lui	a5,0x41000
80200628:	0080006f          	j	80200630 <main+0x444>
8020062c:	f00027b7          	lui	a5,0xf0002
80200630:	30018737          	lui	a4,0x30018
80200634:	01070713          	addi	a4,a4,16 # 30018010 <app_entry-0x501e7ff0>
80200638:	00f72023          	sw	a5,0(a4)
8020063c:	802087b7          	lui	a5,0x80208
80200640:	03078793          	addi	a5,a5,48 # 80208030 <txbuffer.1>
80200644:	00078693          	mv	a3,a5
80200648:	fa040793          	addi	a5,s0,-96
8020064c:	04200713          	li	a4,66
80200650:	00070613          	mv	a2,a4
80200654:	00078593          	mv	a1,a5
80200658:	00068513          	mv	a0,a3
8020065c:	3a4000ef          	jal	80200a00 <memcpy>
80200660:	802087b7          	lui	a5,0x80208
80200664:	08078793          	addi	a5,a5,128 # 80208080 <txdesc.0>
80200668:	80208737          	lui	a4,0x80208
8020066c:	03070713          	addi	a4,a4,48 # 80208030 <txbuffer.1>
80200670:	00e7a023          	sw	a4,0(a5)
80200674:	802087b7          	lui	a5,0x80208
80200678:	08b78793          	addi	a5,a5,139 # 8020808b <txdesc.0+0xb>
8020067c:	0007c783          	lbu	a5,0(a5)
80200680:	0ff7f713          	zext.b	a4,a5
80200684:	802087b7          	lui	a5,0x80208
80200688:	08b78793          	addi	a5,a5,139 # 8020808b <txdesc.0+0xb>
8020068c:	00576713          	ori	a4,a4,5
80200690:	0ff77713          	zext.b	a4,a4
80200694:	00e78023          	sb	a4,0(a5)
80200698:	802087b7          	lui	a5,0x80208
8020069c:	08c78793          	addi	a5,a5,140 # 8020808c <txdesc.0+0xc>
802006a0:	0007c783          	lbu	a5,0(a5)
802006a4:	0ff7f713          	zext.b	a4,a5
802006a8:	802087b7          	lui	a5,0x80208
802006ac:	08c78793          	addi	a5,a5,140 # 8020808c <txdesc.0+0xc>
802006b0:	00576713          	ori	a4,a4,5
802006b4:	0ff77713          	zext.b	a4,a4
802006b8:	00e78023          	sb	a4,0(a5)
802006bc:	802087b7          	lui	a5,0x80208
802006c0:	0187a783          	lw	a5,24(a5) # 80208018 <earth>
802006c4:	0307a703          	lw	a4,48(a5)
802006c8:	00100793          	li	a5,1
802006cc:	00f71863          	bne	a4,a5,802006dc <main+0x4f0>
802006d0:	410047b7          	lui	a5,0x41004
802006d4:	80078793          	addi	a5,a5,-2048 # 41003800 <app_entry-0x3f1fc800>
802006d8:	00c0006f          	j	802006e4 <main+0x4f8>
802006dc:	f00067b7          	lui	a5,0xf0006
802006e0:	80078793          	addi	a5,a5,-2048 # f0005800 <__heap_end+0x6fd05800>
802006e4:	80208737          	lui	a4,0x80208
802006e8:	08070713          	addi	a4,a4,128 # 80208080 <txdesc.0>
802006ec:	00e7a023          	sw	a4,0(a5)
802006f0:	802087b7          	lui	a5,0x80208
802006f4:	0187a783          	lw	a5,24(a5) # 80208018 <earth>
802006f8:	0307a703          	lw	a4,48(a5)
802006fc:	00100793          	li	a5,1
80200700:	00f71863          	bne	a4,a5,80200710 <main+0x524>
80200704:	410047b7          	lui	a5,0x41004
80200708:	80878793          	addi	a5,a5,-2040 # 41003808 <app_entry-0x3f1fc7f8>
8020070c:	00c0006f          	j	80200718 <main+0x52c>
80200710:	f00067b7          	lui	a5,0xf0006
80200714:	80878793          	addi	a5,a5,-2040 # f0005808 <__heap_end+0x6fd05808>
80200718:	01000713          	li	a4,16
8020071c:	00e7a023          	sw	a4,0(a5)
80200720:	802087b7          	lui	a5,0x80208
80200724:	0187a783          	lw	a5,24(a5) # 80208018 <earth>
80200728:	0307a703          	lw	a4,48(a5)
8020072c:	00100793          	li	a5,1
80200730:	00f71863          	bne	a4,a5,80200740 <main+0x554>
80200734:	410047b7          	lui	a5,0x41004
80200738:	81878793          	addi	a5,a5,-2024 # 41003818 <app_entry-0x3f1fc7e8>
8020073c:	00c0006f          	j	80200748 <main+0x55c>
80200740:	f00067b7          	lui	a5,0xf0006
80200744:	81878793          	addi	a5,a5,-2024 # f0005818 <__heap_end+0x6fd05818>
80200748:	0007a023          	sw	zero,0(a5)
8020074c:	802087b7          	lui	a5,0x80208
80200750:	0187a783          	lw	a5,24(a5) # 80208018 <earth>
80200754:	0307a703          	lw	a4,48(a5)
80200758:	00100793          	li	a5,1
8020075c:	00f71863          	bne	a4,a5,8020076c <main+0x580>
80200760:	410007b7          	lui	a5,0x41000
80200764:	41078793          	addi	a5,a5,1040 # 41000410 <app_entry-0x3f1ffbf0>
80200768:	00c0006f          	j	80200774 <main+0x588>
8020076c:	f00027b7          	lui	a5,0xf0002
80200770:	41078793          	addi	a5,a5,1040 # f0002410 <__heap_end+0x6fd02410>
80200774:	00601737          	lui	a4,0x601
80200778:	00a70713          	addi	a4,a4,10 # 60100a <app_entry-0x7fbfeff6>
8020077c:	00e7a023          	sw	a4,0(a5)
80200780:	802087b7          	lui	a5,0x80208
80200784:	0187a783          	lw	a5,24(a5) # 80208018 <earth>
80200788:	0307a703          	lw	a4,48(a5)
8020078c:	00100793          	li	a5,1
80200790:	00f71863          	bne	a4,a5,802007a0 <main+0x5b4>
80200794:	410007b7          	lui	a5,0x41000
80200798:	40078793          	addi	a5,a5,1024 # 41000400 <app_entry-0x3f1ffc00>
8020079c:	00c0006f          	j	802007a8 <main+0x5bc>
802007a0:	f00027b7          	lui	a5,0xf0002
802007a4:	40078793          	addi	a5,a5,1024 # f0002400 <__heap_end+0x6fd02400>
802007a8:	0007a683          	lw	a3,0(a5)
802007ac:	802087b7          	lui	a5,0x80208
802007b0:	0187a783          	lw	a5,24(a5) # 80208018 <earth>
802007b4:	0307a703          	lw	a4,48(a5)
802007b8:	00100793          	li	a5,1
802007bc:	00f71863          	bne	a4,a5,802007cc <main+0x5e0>
802007c0:	410007b7          	lui	a5,0x41000
802007c4:	40078793          	addi	a5,a5,1024 # 41000400 <app_entry-0x3f1ffc00>
802007c8:	00c0006f          	j	802007d4 <main+0x5e8>
802007cc:	f00027b7          	lui	a5,0xf0002
802007d0:	40078793          	addi	a5,a5,1024 # f0002400 <__heap_end+0x6fd02400>
802007d4:	00040737          	lui	a4,0x40
802007d8:	10a70713          	addi	a4,a4,266 # 4010a <app_entry-0x801bfef6>
802007dc:	00e6e733          	or	a4,a3,a4
802007e0:	00e7a023          	sw	a4,0(a5)
802007e4:	00000013          	nop
802007e8:	802087b7          	lui	a5,0x80208
802007ec:	08c78793          	addi	a5,a5,140 # 8020808c <txdesc.0+0xc>
802007f0:	0007c783          	lbu	a5,0(a5)
802007f4:	0ff7f793          	zext.b	a5,a5
802007f8:	0017f793          	andi	a5,a5,1
802007fc:	fe0786e3          	beqz	a5,802007e8 <main+0x5fc>
80200800:	802087b7          	lui	a5,0x80208
80200804:	08c78793          	addi	a5,a5,140 # 8020808c <txdesc.0+0xc>
80200808:	0007c783          	lbu	a5,0(a5)
8020080c:	0ff7f713          	zext.b	a4,a5
80200810:	802087b7          	lui	a5,0x80208
80200814:	08c78793          	addi	a5,a5,140 # 8020808c <txdesc.0+0xc>
80200818:	ffe77713          	andi	a4,a4,-2
8020081c:	0ff77713          	zext.b	a4,a4
80200820:	00e78023          	sb	a4,0(a5)
80200824:	802087b7          	lui	a5,0x80208
80200828:	08878793          	addi	a5,a5,136 # 80208088 <txdesc.0+0x8>
8020082c:	04200713          	li	a4,66
80200830:	00e78023          	sb	a4,0(a5)
80200834:	802087b7          	lui	a5,0x80208
80200838:	0187a783          	lw	a5,24(a5) # 80208018 <earth>
8020083c:	0307a703          	lw	a4,48(a5)
80200840:	00100793          	li	a5,1
80200844:	00f71863          	bne	a4,a5,80200854 <main+0x668>
80200848:	410047b7          	lui	a5,0x41004
8020084c:	81878793          	addi	a5,a5,-2024 # 41003818 <app_entry-0x3f1fc7e8>
80200850:	00c0006f          	j	8020085c <main+0x670>
80200854:	f00067b7          	lui	a5,0xf0006
80200858:	81878793          	addi	a5,a5,-2024 # f0005818 <__heap_end+0x6fd05818>
8020085c:	00100713          	li	a4,1
80200860:	00e7a023          	sw	a4,0(a5)
80200864:	00000793          	li	a5,0
80200868:	00078513          	mv	a0,a5
8020086c:	06c12083          	lw	ra,108(sp)
80200870:	06812403          	lw	s0,104(sp)
80200874:	06412483          	lw	s1,100(sp)
80200878:	07010113          	addi	sp,sp,112
8020087c:	00008067          	ret

80200880 <exit>:
exit():
80200880:	dd010113          	addi	sp,sp,-560
80200884:	22112623          	sw	ra,556(sp)
80200888:	22812423          	sw	s0,552(sp)
8020088c:	23010413          	addi	s0,sp,560
80200890:	dca42e23          	sw	a0,-548(s0)
80200894:	00100793          	li	a5,1
80200898:	def42423          	sw	a5,-536(s0)
8020089c:	de840793          	addi	a5,s0,-536
802008a0:	20800613          	li	a2,520
802008a4:	00078593          	mv	a1,a5
802008a8:	00100513          	li	a0,1
802008ac:	008000ef          	jal	802008b4 <sys_send>
802008b0:	0000006f          	j	802008b0 <exit+0x30>

802008b4 <sys_send>:
sys_send():
802008b4:	fe010113          	addi	sp,sp,-32
802008b8:	00112e23          	sw	ra,28(sp)
802008bc:	00812c23          	sw	s0,24(sp)
802008c0:	02010413          	addi	s0,sp,32
802008c4:	fea42623          	sw	a0,-20(s0)
802008c8:	feb42423          	sw	a1,-24(s0)
802008cc:	fec42223          	sw	a2,-28(s0)
802008d0:	802087b7          	lui	a5,0x80208
802008d4:	02c7a783          	lw	a5,44(a5) # 8020802c <sc>
802008d8:	00200713          	li	a4,2
802008dc:	00e7a023          	sw	a4,0(a5)
802008e0:	802087b7          	lui	a5,0x80208
802008e4:	02c7a783          	lw	a5,44(a5) # 8020802c <sc>
802008e8:	fec42703          	lw	a4,-20(s0)
802008ec:	00e7a423          	sw	a4,8(a5)
802008f0:	802087b7          	lui	a5,0x80208
802008f4:	02c7a783          	lw	a5,44(a5) # 8020802c <sc>
802008f8:	00c78793          	addi	a5,a5,12
802008fc:	fe442603          	lw	a2,-28(s0)
80200900:	fe842583          	lw	a1,-24(s0)
80200904:	00078513          	mv	a0,a5
80200908:	0f8000ef          	jal	80200a00 <memcpy>
8020090c:	00000073          	ecall
80200910:	00000013          	nop
80200914:	01c12083          	lw	ra,28(sp)
80200918:	01812403          	lw	s0,24(sp)
8020091c:	02010113          	addi	sp,sp,32
80200920:	00008067          	ret

80200924 <memset>:
memset():
80200924:	00f00313          	li	t1,15
80200928:	00050713          	mv	a4,a0
8020092c:	02c37e63          	bgeu	t1,a2,80200968 <memset+0x44>
80200930:	00f77793          	andi	a5,a4,15
80200934:	0a079063          	bnez	a5,802009d4 <memset+0xb0>
80200938:	08059263          	bnez	a1,802009bc <memset+0x98>
8020093c:	ff067693          	andi	a3,a2,-16
80200940:	00f67613          	andi	a2,a2,15
80200944:	00e686b3          	add	a3,a3,a4
80200948:	00b72023          	sw	a1,0(a4)
8020094c:	00b72223          	sw	a1,4(a4)
80200950:	00b72423          	sw	a1,8(a4)
80200954:	00b72623          	sw	a1,12(a4)
80200958:	01070713          	addi	a4,a4,16
8020095c:	fed766e3          	bltu	a4,a3,80200948 <memset+0x24>
80200960:	00061463          	bnez	a2,80200968 <memset+0x44>
80200964:	00008067          	ret
80200968:	40c306b3          	sub	a3,t1,a2
8020096c:	00269693          	slli	a3,a3,0x2
80200970:	00000297          	auipc	t0,0x0
80200974:	005686b3          	add	a3,a3,t0
80200978:	00c68067          	jr	12(a3)
8020097c:	00b70723          	sb	a1,14(a4)
80200980:	00b706a3          	sb	a1,13(a4)
80200984:	00b70623          	sb	a1,12(a4)
80200988:	00b705a3          	sb	a1,11(a4)
8020098c:	00b70523          	sb	a1,10(a4)
80200990:	00b704a3          	sb	a1,9(a4)
80200994:	00b70423          	sb	a1,8(a4)
80200998:	00b703a3          	sb	a1,7(a4)
8020099c:	00b70323          	sb	a1,6(a4)
802009a0:	00b702a3          	sb	a1,5(a4)
802009a4:	00b70223          	sb	a1,4(a4)
802009a8:	00b701a3          	sb	a1,3(a4)
802009ac:	00b70123          	sb	a1,2(a4)
802009b0:	00b700a3          	sb	a1,1(a4)
802009b4:	00b70023          	sb	a1,0(a4)
802009b8:	00008067          	ret
802009bc:	0ff5f593          	zext.b	a1,a1
802009c0:	00859693          	slli	a3,a1,0x8
802009c4:	00d5e5b3          	or	a1,a1,a3
802009c8:	01059693          	slli	a3,a1,0x10
802009cc:	00d5e5b3          	or	a1,a1,a3
802009d0:	f6dff06f          	j	8020093c <memset+0x18>
802009d4:	00279693          	slli	a3,a5,0x2
802009d8:	00000297          	auipc	t0,0x0
802009dc:	005686b3          	add	a3,a3,t0
802009e0:	00008293          	mv	t0,ra
802009e4:	fa0680e7          	jalr	-96(a3)
802009e8:	00028093          	mv	ra,t0
802009ec:	ff078793          	addi	a5,a5,-16
802009f0:	40f70733          	sub	a4,a4,a5
802009f4:	00f60633          	add	a2,a2,a5
802009f8:	f6c378e3          	bgeu	t1,a2,80200968 <memset+0x44>
802009fc:	f3dff06f          	j	80200938 <memset+0x14>

80200a00 <memcpy>:
memcpy():
80200a00:	00a5c7b3          	xor	a5,a1,a0
80200a04:	0037f793          	andi	a5,a5,3
80200a08:	00c508b3          	add	a7,a0,a2
80200a0c:	06079663          	bnez	a5,80200a78 <memcpy+0x78>
80200a10:	00300793          	li	a5,3
80200a14:	06c7f263          	bgeu	a5,a2,80200a78 <memcpy+0x78>
80200a18:	00357793          	andi	a5,a0,3
80200a1c:	00050713          	mv	a4,a0
80200a20:	0c079a63          	bnez	a5,80200af4 <memcpy+0xf4>
80200a24:	ffc8f613          	andi	a2,a7,-4
80200a28:	40e606b3          	sub	a3,a2,a4
80200a2c:	02000793          	li	a5,32
80200a30:	06d7c463          	blt	a5,a3,80200a98 <memcpy+0x98>
80200a34:	00058693          	mv	a3,a1
80200a38:	00070793          	mv	a5,a4
80200a3c:	02c77a63          	bgeu	a4,a2,80200a70 <memcpy+0x70>
80200a40:	0006a803          	lw	a6,0(a3)
80200a44:	00478793          	addi	a5,a5,4
80200a48:	00468693          	addi	a3,a3,4
80200a4c:	ff07ae23          	sw	a6,-4(a5)
80200a50:	fec7e8e3          	bltu	a5,a2,80200a40 <memcpy+0x40>
80200a54:	fff60613          	addi	a2,a2,-1
80200a58:	40e60633          	sub	a2,a2,a4
80200a5c:	ffc67613          	andi	a2,a2,-4
80200a60:	00458593          	addi	a1,a1,4
80200a64:	00470713          	addi	a4,a4,4
80200a68:	00c585b3          	add	a1,a1,a2
80200a6c:	00c70733          	add	a4,a4,a2
80200a70:	01176863          	bltu	a4,a7,80200a80 <memcpy+0x80>
80200a74:	00008067          	ret
80200a78:	00050713          	mv	a4,a0
80200a7c:	ff157ce3          	bgeu	a0,a7,80200a74 <memcpy+0x74>
80200a80:	0005c783          	lbu	a5,0(a1)
80200a84:	00170713          	addi	a4,a4,1
80200a88:	00158593          	addi	a1,a1,1
80200a8c:	fef70fa3          	sb	a5,-1(a4)
80200a90:	fee898e3          	bne	a7,a4,80200a80 <memcpy+0x80>
80200a94:	00008067          	ret
80200a98:	0205a683          	lw	a3,32(a1)
80200a9c:	0005a383          	lw	t2,0(a1)
80200aa0:	0045a283          	lw	t0,4(a1)
80200aa4:	0085af83          	lw	t6,8(a1)
80200aa8:	00c5af03          	lw	t5,12(a1)
80200aac:	0105ae83          	lw	t4,16(a1)
80200ab0:	0145ae03          	lw	t3,20(a1)
80200ab4:	0185a303          	lw	t1,24(a1)
80200ab8:	01c5a803          	lw	a6,28(a1)
80200abc:	02470713          	addi	a4,a4,36
80200ac0:	fed72e23          	sw	a3,-4(a4)
80200ac4:	fc772e23          	sw	t2,-36(a4)
80200ac8:	40e606b3          	sub	a3,a2,a4
80200acc:	fe572023          	sw	t0,-32(a4)
80200ad0:	fff72223          	sw	t6,-28(a4)
80200ad4:	ffe72423          	sw	t5,-24(a4)
80200ad8:	ffd72623          	sw	t4,-20(a4)
80200adc:	ffc72823          	sw	t3,-16(a4)
80200ae0:	fe672a23          	sw	t1,-12(a4)
80200ae4:	ff072c23          	sw	a6,-8(a4)
80200ae8:	02458593          	addi	a1,a1,36
80200aec:	fad7c6e3          	blt	a5,a3,80200a98 <memcpy+0x98>
80200af0:	f45ff06f          	j	80200a34 <memcpy+0x34>
80200af4:	0005c683          	lbu	a3,0(a1)
80200af8:	00170713          	addi	a4,a4,1
80200afc:	00377793          	andi	a5,a4,3
80200b00:	fed70fa3          	sb	a3,-1(a4)
80200b04:	00158593          	addi	a1,a1,1
80200b08:	f0078ee3          	beqz	a5,80200a24 <memcpy+0x24>
80200b0c:	0005c683          	lbu	a3,0(a1)
80200b10:	00170713          	addi	a4,a4,1
80200b14:	00377793          	andi	a5,a4,3
80200b18:	fed70fa3          	sb	a3,-1(a4)
80200b1c:	00158593          	addi	a1,a1,1
80200b20:	fc079ae3          	bnez	a5,80200af4 <memcpy+0xf4>
80200b24:	f01ff06f          	j	80200a24 <memcpy+0x24>

80200b28 <__bswapsi2>:
__bswapsi2():
80200b28:	000106b7          	lui	a3,0x10
80200b2c:	01851613          	slli	a2,a0,0x18
80200b30:	01855793          	srli	a5,a0,0x18
80200b34:	00855713          	srli	a4,a0,0x8
80200b38:	f0068693          	addi	a3,a3,-256 # ff00 <app_entry-0x801f0100>
80200b3c:	00d77733          	and	a4,a4,a3
80200b40:	00c7e7b3          	or	a5,a5,a2
80200b44:	00ff06b7          	lui	a3,0xff0
80200b48:	00851513          	slli	a0,a0,0x8
80200b4c:	00e7e7b3          	or	a5,a5,a4
80200b50:	00d57533          	and	a0,a0,a3
80200b54:	00a7e533          	or	a0,a5,a0
80200b58:	00008067          	ret
