
build/release/user/wcl.elf:     file format elf32-littleriscv
build/release/user/wcl.elf
architecture: riscv:rv32, flags 0x00000112:
EXEC_P, HAS_SYMS, D_PAGED
start address 0x80200000

Program Header:
0x70000003 off    0x00003280 vaddr 0x00000000 paddr 0x00000000 align 2**0
         filesz 0x0000004b memsz 0x00000000 flags r--
    LOAD off    0x00001000 vaddr 0x80200000 paddr 0x80200000 align 2**12
         filesz 0x000010ac memsz 0x000010ac flags r-x
    LOAD off    0x00003000 vaddr 0x80208000 paddr 0x80208000 align 2**12
         filesz 0x00000280 memsz 0x000007bc flags rw-

Sections:
Idx Name              Size      VMA       LMA       File off  Algn  Flags
  0 .text             000010ac  80200000  80200000  00001000  2**3  CONTENTS, ALLOC, LOAD, READONLY, CODE
  1 .rodata           00000158  80208000  80208000  00003000  2**3  CONTENTS, ALLOC, LOAD, READONLY, DATA
  2 .data             00000128  80208158  80208158  00003158  2**3  CONTENTS, ALLOC, LOAD, DATA
  3 .bss              0000053c  80208280  80208280  00003280  2**3  ALLOC
  4 .riscv.attributes 0000004b  00000000  00000000  00003280  2**0  CONTENTS, READONLY
  5 .comment          00000033  00000000  00000000  000032cb  2**0  CONTENTS, READONLY
SYMBOL TABLE:
80200000 l    d  .text	00000000 .text
80208000 l    d  .rodata	00000000 .rodata
80208158 l    d  .data	00000000 .data
80208280 l    d  .bss	00000000 .bss
00000000 l    d  .riscv.attributes	00000000 .riscv.attributes
00000000 l    d  .comment	00000000 .comment
00000000 l    df *ABS*	00000000 ccXLJkvp.o
00000000 l    df *ABS*	00000000 wcl.c
00000000 l    df *ABS*	00000000 print.c
00000000 l    df *ABS*	00000000 servers.c
80208280 l     O .bss	00000004 sender
80208284 l     O .bss	00000400 buf
00000000 l    df *ABS*	00000000 syscall.c
80208278 l     O .data	00000004 sc
00000000 l    df *ABS*	00000000 libc_a-atoi.o
00000000 l    df *ABS*	00000000 libc_a-itoa.o
00000000 l    df *ABS*	00000000 libc_a-strtol.o
80200788 l     F .text	00000284 _strtol_l.isra.0
00000000 l    df *ABS*	00000000 libc_a-utoa.o
00000000 l    df *ABS*	00000000 libc_a-strcat.o
00000000 l    df *ABS*	00000000 libc_a-strncat.o
00000000 l    df *ABS*	00000000 libc_a-strncmp.o
00000000 l    df *ABS*	00000000 libc_a-errno.o
00000000 l    df *ABS*	00000000 libc_a-memcpy.o
00000000 l    df *ABS*	00000000 libc_a-strlen.o
00000000 l    df *ABS*	00000000 libc_a-strcpy.o
00000000 l    df *ABS*	00000000 muldi3.o
00000000 l    df *ABS*	00000000 div.o
8020067c g     F .text	00000090 sys_recv
80200f30 g     F .text	000000a4 strcpy
80200d70 g     F .text	0000000c __errno
80200000 g       .text	00000000 app_entry
80200d7c g     F .text	00000128 memcpy
80201000 g     F .text	00000048 .hidden __hidden___udivsi3
80201000 g     F .text	00000048 .hidden __udivsi3
80200718 g     F .text	00000070 itoa
80200a0c g     F .text	00000020 strtol
80208684 g     O .bss	00000138 __sf
8020060c g     F .text	00000070 sys_send
80200b80 g     F .text	000000a0 strcat
80201048 g     F .text	00000010 .hidden __umodsi3
802004f0 g     F .text	000000b4 file_read
8020017c g     F .text	0000014c format_to_str
80200ccc g     F .text	000000a4 strncmp
80200fd4 g     F .text	00000024 .hidden __mulsi3
80200c20 g     F .text	000000ac strncat
80200a2c g     F .text	00000154 __utoa
80200010 g     F .text	0000016c main
80200ff8 g     F .text	00000084 .hidden __divsi3
80300000 g       *ABS*	00000000 __heap_end
8020827c g     O .data	00000004 _impure_ptr
802087c0 g       .riscv.attributes	00000000 __heap_start
802005a4 g     F .text	00000068 term_write
802003ac g     F .text	00000034 exit
8020107c g     F .text	00000030 .hidden __modsi3
80208158 g     O .data	00000120 _impure_data
8020070c g     F .text	0000000c atoi
80208054 g     O .rodata	00000101 _ctype_
802003e0 g     F .text	00000110 dir_lookup
80200ea4 g     F .text	0000008c strlen
802002c8 g     F .text	000000e4 INFO



Disassembly of section .text:

80200000 <app_entry>:
app_entry():
80200000:	00052503          	lw	a0,0(a0)
80200004:	80400137          	lui	sp,0x80400
80200008:	008000ef          	jal	80200010 <main>
8020000c:	3a0000ef          	jal	802003ac <exit>

80200010 <main>:
main():
80200010:	dc010113          	addi	sp,sp,-576 # 803ffdc0 <__heap_end+0xffdc0>
80200014:	22112e23          	sw	ra,572(sp)
80200018:	22812c23          	sw	s0,568(sp)
8020001c:	24010413          	addi	s0,sp,576
80200020:	dca42623          	sw	a0,-564(s0)
80200024:	dcb42423          	sw	a1,-568(s0)
80200028:	dcc42703          	lw	a4,-564(s0)
8020002c:	00100793          	li	a5,1
80200030:	00e7cc63          	blt	a5,a4,80200048 <main+0x38>
80200034:	802087b7          	lui	a5,0x80208
80200038:	00078513          	mv	a0,a5
8020003c:	28c000ef          	jal	802002c8 <INFO>
80200040:	fff00793          	li	a5,-1
80200044:	1240006f          	j	80200168 <main+0x158>
80200048:	fe042623          	sw	zero,-20(s0)
8020004c:	fe042423          	sw	zero,-24(s0)
80200050:	00100793          	li	a5,1
80200054:	fef42223          	sw	a5,-28(s0)
80200058:	0e00006f          	j	80200138 <main+0x128>
8020005c:	fe442783          	lw	a5,-28(s0)
80200060:	00279793          	slli	a5,a5,0x2
80200064:	dc842703          	lw	a4,-568(s0)
80200068:	00f707b3          	add	a5,a4,a5
8020006c:	0007a783          	lw	a5,0(a5) # 80208000 <__modsi3+0x6f84>
80200070:	fcf42c23          	sw	a5,-40(s0)
80200074:	803027b7          	lui	a5,0x80302
80200078:	0007a783          	lw	a5,0(a5) # 80302000 <__heap_end+0x2000>
8020007c:	fd842583          	lw	a1,-40(s0)
80200080:	00078513          	mv	a0,a5
80200084:	35c000ef          	jal	802003e0 <dir_lookup>
80200088:	fca42a23          	sw	a0,-44(s0)
8020008c:	fd442783          	lw	a5,-44(s0)
80200090:	0007dc63          	bgez	a5,802000a8 <main+0x98>
80200094:	fd842583          	lw	a1,-40(s0)
80200098:	802087b7          	lui	a5,0x80208
8020009c:	01478513          	addi	a0,a5,20 # 80208014 <__modsi3+0x6f98>
802000a0:	228000ef          	jal	802002c8 <INFO>
802000a4:	0880006f          	j	8020012c <main+0x11c>
802000a8:	fe842783          	lw	a5,-24(s0)
802000ac:	00178793          	addi	a5,a5,1
802000b0:	fef42423          	sw	a5,-24(s0)
802000b4:	dd440793          	addi	a5,s0,-556
802000b8:	00078613          	mv	a2,a5
802000bc:	00000593          	li	a1,0
802000c0:	fd442503          	lw	a0,-44(s0)
802000c4:	42c000ef          	jal	802004f0 <file_read>
802000c8:	fe042023          	sw	zero,-32(s0)
802000cc:	fc042e23          	sw	zero,-36(s0)
802000d0:	0340006f          	j	80200104 <main+0xf4>
802000d4:	fdc42783          	lw	a5,-36(s0)
802000d8:	ff078793          	addi	a5,a5,-16
802000dc:	008787b3          	add	a5,a5,s0
802000e0:	de47c703          	lbu	a4,-540(a5)
802000e4:	00a00793          	li	a5,10
802000e8:	00f71863          	bne	a4,a5,802000f8 <main+0xe8>
802000ec:	fe042783          	lw	a5,-32(s0)
802000f0:	00178793          	addi	a5,a5,1
802000f4:	fef42023          	sw	a5,-32(s0)
802000f8:	fdc42783          	lw	a5,-36(s0)
802000fc:	00178793          	addi	a5,a5,1
80200100:	fcf42e23          	sw	a5,-36(s0)
80200104:	dd440793          	addi	a5,s0,-556
80200108:	00078513          	mv	a0,a5
8020010c:	599000ef          	jal	80200ea4 <strlen>
80200110:	00050713          	mv	a4,a0
80200114:	fdc42783          	lw	a5,-36(s0)
80200118:	fae7eee3          	bltu	a5,a4,802000d4 <main+0xc4>
8020011c:	fec42703          	lw	a4,-20(s0)
80200120:	fe042783          	lw	a5,-32(s0)
80200124:	00f707b3          	add	a5,a4,a5
80200128:	fef42623          	sw	a5,-20(s0)
8020012c:	fe442783          	lw	a5,-28(s0)
80200130:	00178793          	addi	a5,a5,1
80200134:	fef42223          	sw	a5,-28(s0)
80200138:	fe442703          	lw	a4,-28(s0)
8020013c:	dcc42783          	lw	a5,-564(s0)
80200140:	f0f74ee3          	blt	a4,a5,8020005c <main+0x4c>
80200144:	fec42703          	lw	a4,-20(s0)
80200148:	fe842783          	lw	a5,-24(s0)
8020014c:	00f707b3          	add	a5,a4,a5
80200150:	fef42623          	sw	a5,-20(s0)
80200154:	fec42583          	lw	a1,-20(s0)
80200158:	802087b7          	lui	a5,0x80208
8020015c:	02878513          	addi	a0,a5,40 # 80208028 <__modsi3+0x6fac>
80200160:	168000ef          	jal	802002c8 <INFO>
80200164:	00000793          	li	a5,0
80200168:	00078513          	mv	a0,a5
8020016c:	23c12083          	lw	ra,572(sp)
80200170:	23812403          	lw	s0,568(sp)
80200174:	24010113          	addi	sp,sp,576
80200178:	00008067          	ret

8020017c <format_to_str>:
format_to_str():
8020017c:	fe010113          	addi	sp,sp,-32
80200180:	00112e23          	sw	ra,28(sp)
80200184:	00812c23          	sw	s0,24(sp)
80200188:	00912a23          	sw	s1,20(sp)
8020018c:	02010413          	addi	s0,sp,32
80200190:	fea42623          	sw	a0,-20(s0)
80200194:	feb42423          	sw	a1,-24(s0)
80200198:	fec42223          	sw	a2,-28(s0)
8020019c:	fec42783          	lw	a5,-20(s0)
802001a0:	00078023          	sb	zero,0(a5)
802001a4:	0fc0006f          	j	802002a0 <format_to_str+0x124>
802001a8:	fe842783          	lw	a5,-24(s0)
802001ac:	0007c703          	lbu	a4,0(a5)
802001b0:	02500793          	li	a5,37
802001b4:	00f70c63          	beq	a4,a5,802001cc <format_to_str+0x50>
802001b8:	00100613          	li	a2,1
802001bc:	fe842583          	lw	a1,-24(s0)
802001c0:	fec42503          	lw	a0,-20(s0)
802001c4:	25d000ef          	jal	80200c20 <strncat>
802001c8:	0cc0006f          	j	80200294 <format_to_str+0x118>
802001cc:	fe842783          	lw	a5,-24(s0)
802001d0:	00178793          	addi	a5,a5,1
802001d4:	fef42423          	sw	a5,-24(s0)
802001d8:	fe842783          	lw	a5,-24(s0)
802001dc:	0007c703          	lbu	a4,0(a5)
802001e0:	07300793          	li	a5,115
802001e4:	02f71263          	bne	a4,a5,80200208 <format_to_str+0x8c>
802001e8:	fe442783          	lw	a5,-28(s0)
802001ec:	00478713          	addi	a4,a5,4
802001f0:	fee42223          	sw	a4,-28(s0)
802001f4:	0007a783          	lw	a5,0(a5)
802001f8:	00078593          	mv	a1,a5
802001fc:	fec42503          	lw	a0,-20(s0)
80200200:	181000ef          	jal	80200b80 <strcat>
80200204:	0900006f          	j	80200294 <format_to_str+0x118>
80200208:	fe842783          	lw	a5,-24(s0)
8020020c:	0007c703          	lbu	a4,0(a5)
80200210:	06400793          	li	a5,100
80200214:	02f71e63          	bne	a4,a5,80200250 <format_to_str+0xd4>
80200218:	fe442783          	lw	a5,-28(s0)
8020021c:	00478713          	addi	a4,a5,4
80200220:	fee42223          	sw	a4,-28(s0)
80200224:	0007a483          	lw	s1,0(a5)
80200228:	fec42503          	lw	a0,-20(s0)
8020022c:	479000ef          	jal	80200ea4 <strlen>
80200230:	00050713          	mv	a4,a0
80200234:	fec42783          	lw	a5,-20(s0)
80200238:	00e787b3          	add	a5,a5,a4
8020023c:	00a00613          	li	a2,10
80200240:	00078593          	mv	a1,a5
80200244:	00048513          	mv	a0,s1
80200248:	4d0000ef          	jal	80200718 <itoa>
8020024c:	0480006f          	j	80200294 <format_to_str+0x118>
80200250:	fe842783          	lw	a5,-24(s0)
80200254:	0007c703          	lbu	a4,0(a5)
80200258:	07800793          	li	a5,120
8020025c:	02f71c63          	bne	a4,a5,80200294 <format_to_str+0x118>
80200260:	fe442783          	lw	a5,-28(s0)
80200264:	00478713          	addi	a4,a5,4
80200268:	fee42223          	sw	a4,-28(s0)
8020026c:	0007a483          	lw	s1,0(a5)
80200270:	fec42503          	lw	a0,-20(s0)
80200274:	431000ef          	jal	80200ea4 <strlen>
80200278:	00050713          	mv	a4,a0
8020027c:	fec42783          	lw	a5,-20(s0)
80200280:	00e787b3          	add	a5,a5,a4
80200284:	01000613          	li	a2,16
80200288:	00078593          	mv	a1,a5
8020028c:	00048513          	mv	a0,s1
80200290:	488000ef          	jal	80200718 <itoa>
80200294:	fe842783          	lw	a5,-24(s0)
80200298:	00178793          	addi	a5,a5,1
8020029c:	fef42423          	sw	a5,-24(s0)
802002a0:	fe842783          	lw	a5,-24(s0)
802002a4:	0007c783          	lbu	a5,0(a5)
802002a8:	f00790e3          	bnez	a5,802001a8 <format_to_str+0x2c>
802002ac:	00000013          	nop
802002b0:	00000013          	nop
802002b4:	01c12083          	lw	ra,28(sp)
802002b8:	01812403          	lw	s0,24(sp)
802002bc:	01412483          	lw	s1,20(sp)
802002c0:	02010113          	addi	sp,sp,32
802002c4:	00008067          	ret

802002c8 <INFO>:
INFO():
802002c8:	db010113          	addi	sp,sp,-592
802002cc:	22112623          	sw	ra,556(sp)
802002d0:	22812423          	sw	s0,552(sp)
802002d4:	23010413          	addi	s0,sp,560
802002d8:	dca42e23          	sw	a0,-548(s0)
802002dc:	00b42223          	sw	a1,4(s0)
802002e0:	00c42423          	sw	a2,8(s0)
802002e4:	00d42623          	sw	a3,12(s0)
802002e8:	00e42823          	sw	a4,16(s0)
802002ec:	00f42a23          	sw	a5,20(s0)
802002f0:	01042c23          	sw	a6,24(s0)
802002f4:	01142e23          	sw	a7,28(s0)
802002f8:	df040793          	addi	a5,s0,-528
802002fc:	464e5737          	lui	a4,0x464e5
80200300:	95b70713          	addi	a4,a4,-1701 # 464e495b <app_entry-0x39d1b6a5>
80200304:	00e7a023          	sw	a4,0(a5)
80200308:	00206737          	lui	a4,0x206
8020030c:	d4f70713          	addi	a4,a4,-689 # 205d4f <app_entry-0x7fffa2b1>
80200310:	00e7a223          	sw	a4,4(a5)
80200314:	02040793          	addi	a5,s0,32
80200318:	dcf42c23          	sw	a5,-552(s0)
8020031c:	dd842783          	lw	a5,-552(s0)
80200320:	fe478793          	addi	a5,a5,-28
80200324:	def42623          	sw	a5,-532(s0)
80200328:	df040793          	addi	a5,s0,-528
8020032c:	00778793          	addi	a5,a5,7
80200330:	dec42703          	lw	a4,-532(s0)
80200334:	00070613          	mv	a2,a4
80200338:	ddc42583          	lw	a1,-548(s0)
8020033c:	00078513          	mv	a0,a5
80200340:	e3dff0ef          	jal	8020017c <format_to_str>
80200344:	df040793          	addi	a5,s0,-528
80200348:	00078513          	mv	a0,a5
8020034c:	359000ef          	jal	80200ea4 <strlen>
80200350:	00050793          	mv	a5,a0
80200354:	00078713          	mv	a4,a5
80200358:	df040793          	addi	a5,s0,-528
8020035c:	00e787b3          	add	a5,a5,a4
80200360:	00a00713          	li	a4,10
80200364:	00e78023          	sb	a4,0(a5)
80200368:	00d00713          	li	a4,13
8020036c:	00e780a3          	sb	a4,1(a5)
80200370:	00078123          	sb	zero,2(a5)
80200374:	df040793          	addi	a5,s0,-528
80200378:	00078513          	mv	a0,a5
8020037c:	329000ef          	jal	80200ea4 <strlen>
80200380:	00050713          	mv	a4,a0
80200384:	df040793          	addi	a5,s0,-528
80200388:	00070593          	mv	a1,a4
8020038c:	00078513          	mv	a0,a5
80200390:	214000ef          	jal	802005a4 <term_write>
80200394:	00000013          	nop
80200398:	00078513          	mv	a0,a5
8020039c:	22c12083          	lw	ra,556(sp)
802003a0:	22812403          	lw	s0,552(sp)
802003a4:	25010113          	addi	sp,sp,592
802003a8:	00008067          	ret

802003ac <exit>:
exit():
802003ac:	dd010113          	addi	sp,sp,-560
802003b0:	22112623          	sw	ra,556(sp)
802003b4:	22812423          	sw	s0,552(sp)
802003b8:	23010413          	addi	s0,sp,560
802003bc:	dca42e23          	sw	a0,-548(s0)
802003c0:	00100793          	li	a5,1
802003c4:	def42423          	sw	a5,-536(s0)
802003c8:	de840793          	addi	a5,s0,-536
802003cc:	20800613          	li	a2,520
802003d0:	00078593          	mv	a1,a5
802003d4:	00100513          	li	a0,1
802003d8:	234000ef          	jal	8020060c <sys_send>
802003dc:	0000006f          	j	802003dc <exit+0x30>

802003e0 <dir_lookup>:
dir_lookup():
802003e0:	dd010113          	addi	sp,sp,-560
802003e4:	22112623          	sw	ra,556(sp)
802003e8:	22812423          	sw	s0,552(sp)
802003ec:	23010413          	addi	s0,sp,560
802003f0:	dca42e23          	sw	a0,-548(s0)
802003f4:	dcb42c23          	sw	a1,-552(s0)
802003f8:	de840793          	addi	a5,s0,-536
802003fc:	00078613          	mv	a2,a5
80200400:	00000593          	li	a1,0
80200404:	ddc42503          	lw	a0,-548(s0)
80200408:	0e8000ef          	jal	802004f0 <file_read>
8020040c:	fe042623          	sw	zero,-20(s0)
80200410:	dd842503          	lw	a0,-552(s0)
80200414:	291000ef          	jal	80200ea4 <strlen>
80200418:	fea42423          	sw	a0,-24(s0)
8020041c:	09c0006f          	j	802004b8 <dir_lookup+0xd8>
80200420:	de840713          	addi	a4,s0,-536
80200424:	fec42783          	lw	a5,-20(s0)
80200428:	00f707b3          	add	a5,a4,a5
8020042c:	fe842603          	lw	a2,-24(s0)
80200430:	00078593          	mv	a1,a5
80200434:	dd842503          	lw	a0,-552(s0)
80200438:	095000ef          	jal	80200ccc <strncmp>
8020043c:	00050793          	mv	a5,a0
80200440:	06079663          	bnez	a5,802004ac <dir_lookup+0xcc>
80200444:	fec42703          	lw	a4,-20(s0)
80200448:	fe842783          	lw	a5,-24(s0)
8020044c:	00f707b3          	add	a5,a4,a5
80200450:	ff078793          	addi	a5,a5,-16
80200454:	008787b3          	add	a5,a5,s0
80200458:	df87c703          	lbu	a4,-520(a5)
8020045c:	02000793          	li	a5,32
80200460:	04f71663          	bne	a4,a5,802004ac <dir_lookup+0xcc>
80200464:	fec42783          	lw	a5,-20(s0)
80200468:	02078063          	beqz	a5,80200488 <dir_lookup+0xa8>
8020046c:	fec42783          	lw	a5,-20(s0)
80200470:	fff78793          	addi	a5,a5,-1
80200474:	ff078793          	addi	a5,a5,-16
80200478:	008787b3          	add	a5,a5,s0
8020047c:	df87c703          	lbu	a4,-520(a5)
80200480:	02000793          	li	a5,32
80200484:	02f71463          	bne	a4,a5,802004ac <dir_lookup+0xcc>
80200488:	fec42703          	lw	a4,-20(s0)
8020048c:	fe842783          	lw	a5,-24(s0)
80200490:	00f707b3          	add	a5,a4,a5
80200494:	de840713          	addi	a4,s0,-536
80200498:	00f707b3          	add	a5,a4,a5
8020049c:	00078513          	mv	a0,a5
802004a0:	26c000ef          	jal	8020070c <atoi>
802004a4:	00050793          	mv	a5,a0
802004a8:	0340006f          	j	802004dc <dir_lookup+0xfc>
802004ac:	fec42783          	lw	a5,-20(s0)
802004b0:	00178793          	addi	a5,a5,1
802004b4:	fef42623          	sw	a5,-20(s0)
802004b8:	de840793          	addi	a5,s0,-536
802004bc:	00078513          	mv	a0,a5
802004c0:	1e5000ef          	jal	80200ea4 <strlen>
802004c4:	00050713          	mv	a4,a0
802004c8:	fe842783          	lw	a5,-24(s0)
802004cc:	40f707b3          	sub	a5,a4,a5
802004d0:	fec42703          	lw	a4,-20(s0)
802004d4:	f4f766e3          	bltu	a4,a5,80200420 <dir_lookup+0x40>
802004d8:	fff00793          	li	a5,-1
802004dc:	00078513          	mv	a0,a5
802004e0:	22c12083          	lw	ra,556(sp)
802004e4:	22812403          	lw	s0,552(sp)
802004e8:	23010113          	addi	sp,sp,560
802004ec:	00008067          	ret

802004f0 <file_read>:
file_read():
802004f0:	dd010113          	addi	sp,sp,-560
802004f4:	22112623          	sw	ra,556(sp)
802004f8:	22812423          	sw	s0,552(sp)
802004fc:	23010413          	addi	s0,sp,560
80200500:	dca42e23          	sw	a0,-548(s0)
80200504:	dcb42c23          	sw	a1,-552(s0)
80200508:	dcc42a23          	sw	a2,-556(s0)
8020050c:	00100793          	li	a5,1
80200510:	def42023          	sw	a5,-544(s0)
80200514:	ddc42783          	lw	a5,-548(s0)
80200518:	def42223          	sw	a5,-540(s0)
8020051c:	dd842783          	lw	a5,-552(s0)
80200520:	def42423          	sw	a5,-536(s0)
80200524:	de040793          	addi	a5,s0,-544
80200528:	20c00613          	li	a2,524
8020052c:	00078593          	mv	a1,a5
80200530:	00300513          	li	a0,3
80200534:	0d8000ef          	jal	8020060c <sys_send>
80200538:	40000693          	li	a3,1024
8020053c:	802087b7          	lui	a5,0x80208
80200540:	28478613          	addi	a2,a5,644 # 80208284 <buf>
80200544:	802087b7          	lui	a5,0x80208
80200548:	28078593          	addi	a1,a5,640 # 80208280 <sender>
8020054c:	00300513          	li	a0,3
80200550:	12c000ef          	jal	8020067c <sys_recv>
80200554:	802087b7          	lui	a5,0x80208
80200558:	28478793          	addi	a5,a5,644 # 80208284 <buf>
8020055c:	fef42623          	sw	a5,-20(s0)
80200560:	fec42783          	lw	a5,-20(s0)
80200564:	00478793          	addi	a5,a5,4
80200568:	20000613          	li	a2,512
8020056c:	00078593          	mv	a1,a5
80200570:	dd442503          	lw	a0,-556(s0)
80200574:	009000ef          	jal	80200d7c <memcpy>
80200578:	fec42783          	lw	a5,-20(s0)
8020057c:	0007a783          	lw	a5,0(a5)
80200580:	00079663          	bnez	a5,8020058c <file_read+0x9c>
80200584:	00000793          	li	a5,0
80200588:	0080006f          	j	80200590 <file_read+0xa0>
8020058c:	fff00793          	li	a5,-1
80200590:	00078513          	mv	a0,a5
80200594:	22c12083          	lw	ra,556(sp)
80200598:	22812403          	lw	s0,552(sp)
8020059c:	23010113          	addi	sp,sp,560
802005a0:	00008067          	ret

802005a4 <term_write>:
term_write():
802005a4:	dd010113          	addi	sp,sp,-560
802005a8:	22112623          	sw	ra,556(sp)
802005ac:	22812423          	sw	s0,552(sp)
802005b0:	23010413          	addi	s0,sp,560
802005b4:	dca42e23          	sw	a0,-548(s0)
802005b8:	dcb42c23          	sw	a1,-552(s0)
802005bc:	00100793          	li	a5,1
802005c0:	def42423          	sw	a5,-536(s0)
802005c4:	dd842783          	lw	a5,-552(s0)
802005c8:	def42623          	sw	a5,-532(s0)
802005cc:	de840793          	addi	a5,s0,-536
802005d0:	00878793          	addi	a5,a5,8
802005d4:	dd842603          	lw	a2,-552(s0)
802005d8:	ddc42583          	lw	a1,-548(s0)
802005dc:	00078513          	mv	a0,a5
802005e0:	79c000ef          	jal	80200d7c <memcpy>
802005e4:	de840793          	addi	a5,s0,-536
802005e8:	20800613          	li	a2,520
802005ec:	00078593          	mv	a1,a5
802005f0:	00200513          	li	a0,2
802005f4:	018000ef          	jal	8020060c <sys_send>
802005f8:	00000013          	nop
802005fc:	22c12083          	lw	ra,556(sp)
80200600:	22812403          	lw	s0,552(sp)
80200604:	23010113          	addi	sp,sp,560
80200608:	00008067          	ret

8020060c <sys_send>:
sys_send():
8020060c:	fe010113          	addi	sp,sp,-32
80200610:	00112e23          	sw	ra,28(sp)
80200614:	00812c23          	sw	s0,24(sp)
80200618:	02010413          	addi	s0,sp,32
8020061c:	fea42623          	sw	a0,-20(s0)
80200620:	feb42423          	sw	a1,-24(s0)
80200624:	fec42223          	sw	a2,-28(s0)
80200628:	802087b7          	lui	a5,0x80208
8020062c:	2787a783          	lw	a5,632(a5) # 80208278 <sc>
80200630:	00200713          	li	a4,2
80200634:	00e7a023          	sw	a4,0(a5)
80200638:	802087b7          	lui	a5,0x80208
8020063c:	2787a783          	lw	a5,632(a5) # 80208278 <sc>
80200640:	fec42703          	lw	a4,-20(s0)
80200644:	00e7a423          	sw	a4,8(a5)
80200648:	802087b7          	lui	a5,0x80208
8020064c:	2787a783          	lw	a5,632(a5) # 80208278 <sc>
80200650:	00c78793          	addi	a5,a5,12
80200654:	fe442603          	lw	a2,-28(s0)
80200658:	fe842583          	lw	a1,-24(s0)
8020065c:	00078513          	mv	a0,a5
80200660:	71c000ef          	jal	80200d7c <memcpy>
80200664:	00000073          	ecall
80200668:	00000013          	nop
8020066c:	01c12083          	lw	ra,28(sp)
80200670:	01812403          	lw	s0,24(sp)
80200674:	02010113          	addi	sp,sp,32
80200678:	00008067          	ret

8020067c <sys_recv>:
sys_recv():
8020067c:	fe010113          	addi	sp,sp,-32
80200680:	00112e23          	sw	ra,28(sp)
80200684:	00812c23          	sw	s0,24(sp)
80200688:	02010413          	addi	s0,sp,32
8020068c:	fea42623          	sw	a0,-20(s0)
80200690:	feb42423          	sw	a1,-24(s0)
80200694:	fec42223          	sw	a2,-28(s0)
80200698:	fed42023          	sw	a3,-32(s0)
8020069c:	802087b7          	lui	a5,0x80208
802006a0:	2787a783          	lw	a5,632(a5) # 80208278 <sc>
802006a4:	00100713          	li	a4,1
802006a8:	00e7a023          	sw	a4,0(a5)
802006ac:	802087b7          	lui	a5,0x80208
802006b0:	2787a783          	lw	a5,632(a5) # 80208278 <sc>
802006b4:	fec42703          	lw	a4,-20(s0)
802006b8:	00e7a223          	sw	a4,4(a5)
802006bc:	00000073          	ecall
802006c0:	802087b7          	lui	a5,0x80208
802006c4:	2787a783          	lw	a5,632(a5) # 80208278 <sc>
802006c8:	00c78793          	addi	a5,a5,12
802006cc:	fe042603          	lw	a2,-32(s0)
802006d0:	00078593          	mv	a1,a5
802006d4:	fe442503          	lw	a0,-28(s0)
802006d8:	6a4000ef          	jal	80200d7c <memcpy>
802006dc:	fe842783          	lw	a5,-24(s0)
802006e0:	00078c63          	beqz	a5,802006f8 <sys_recv+0x7c>
802006e4:	802087b7          	lui	a5,0x80208
802006e8:	2787a783          	lw	a5,632(a5) # 80208278 <sc>
802006ec:	0047a703          	lw	a4,4(a5)
802006f0:	fe842783          	lw	a5,-24(s0)
802006f4:	00e7a023          	sw	a4,0(a5)
802006f8:	00000013          	nop
802006fc:	01c12083          	lw	ra,28(sp)
80200700:	01812403          	lw	s0,24(sp)
80200704:	02010113          	addi	sp,sp,32
80200708:	00008067          	ret

8020070c <atoi>:
atoi():
8020070c:	00a00613          	li	a2,10
80200710:	00000593          	li	a1,0
80200714:	2f80006f          	j	80200a0c <strtol>

80200718 <itoa>:
itoa():
80200718:	ff010113          	addi	sp,sp,-16
8020071c:	00812423          	sw	s0,8(sp)
80200720:	00112623          	sw	ra,12(sp)
80200724:	ffe60713          	addi	a4,a2,-2
80200728:	02200793          	li	a5,34
8020072c:	00058413          	mv	s0,a1
80200730:	04e7e063          	bltu	a5,a4,80200770 <itoa+0x58>
80200734:	00a00793          	li	a5,10
80200738:	02f60063          	beq	a2,a5,80200758 <itoa+0x40>
8020073c:	00040593          	mv	a1,s0
80200740:	2ec000ef          	jal	80200a2c <__utoa>
80200744:	00c12083          	lw	ra,12(sp)
80200748:	00040513          	mv	a0,s0
8020074c:	00812403          	lw	s0,8(sp)
80200750:	01010113          	addi	sp,sp,16
80200754:	00008067          	ret
80200758:	fe0552e3          	bgez	a0,8020073c <itoa+0x24>
8020075c:	02d00793          	li	a5,45
80200760:	00f58023          	sb	a5,0(a1)
80200764:	40a00533          	neg	a0,a0
80200768:	00158593          	addi	a1,a1,1
8020076c:	fd5ff06f          	j	80200740 <itoa+0x28>
80200770:	00058023          	sb	zero,0(a1)
80200774:	00c12083          	lw	ra,12(sp)
80200778:	00812403          	lw	s0,8(sp)
8020077c:	00000513          	li	a0,0
80200780:	01010113          	addi	sp,sp,16
80200784:	00008067          	ret

80200788 <_strtol_l.isra.0>:
_strtol_l.isra.0():
80200788:	fb010113          	addi	sp,sp,-80
8020078c:	04112623          	sw	ra,76(sp)
80200790:	02400793          	li	a5,36
80200794:	00a12423          	sw	a0,8(sp)
80200798:	18d7ec63          	bltu	a5,a3,80200930 <_strtol_l.isra.0+0x1a8>
8020079c:	04812423          	sw	s0,72(sp)
802007a0:	05212023          	sw	s2,64(sp)
802007a4:	03312e23          	sw	s3,60(sp)
802007a8:	03412c23          	sw	s4,56(sp)
802007ac:	03912223          	sw	s9,36(sp)
802007b0:	00100793          	li	a5,1
802007b4:	00068c93          	mv	s9,a3
802007b8:	00058913          	mv	s2,a1
802007bc:	00060a13          	mv	s4,a2
802007c0:	00068993          	mv	s3,a3
802007c4:	00058413          	mv	s0,a1
802007c8:	00008717          	auipc	a4,0x8
802007cc:	88d70713          	addi	a4,a4,-1907 # 80208055 <_ctype_+0x1>
802007d0:	14f68663          	beq	a3,a5,8020091c <_strtol_l.isra.0+0x194>
802007d4:	04912223          	sw	s1,68(sp)
802007d8:	03512a23          	sw	s5,52(sp)
802007dc:	03612823          	sw	s6,48(sp)
802007e0:	03712623          	sw	s7,44(sp)
802007e4:	03812423          	sw	s8,40(sp)
802007e8:	03a12023          	sw	s10,32(sp)
802007ec:	01b12e23          	sw	s11,28(sp)
802007f0:	00040693          	mv	a3,s0
802007f4:	00044483          	lbu	s1,0(s0)
802007f8:	00140413          	addi	s0,s0,1
802007fc:	009707b3          	add	a5,a4,s1
80200800:	0007c783          	lbu	a5,0(a5)
80200804:	0087f793          	andi	a5,a5,8
80200808:	fe0794e3          	bnez	a5,802007f0 <_strtol_l.isra.0+0x68>
8020080c:	02d00793          	li	a5,45
80200810:	1af48063          	beq	s1,a5,802009b0 <_strtol_l.isra.0+0x228>
80200814:	02b00793          	li	a5,43
80200818:	80000b37          	lui	s6,0x80000
8020081c:	12f48863          	beq	s1,a5,8020094c <_strtol_l.isra.0+0x1c4>
80200820:	fffb0b13          	addi	s6,s6,-1 # 7fffffff <app_entry-0x200001>
80200824:	00012623          	sw	zero,12(sp)
80200828:	120c9c63          	bnez	s9,80200960 <_strtol_l.isra.0+0x1d8>
8020082c:	00a00993          	li	s3,10
80200830:	03000793          	li	a5,48
80200834:	00098c93          	mv	s9,s3
80200838:	1af48863          	beq	s1,a5,802009e8 <_strtol_l.isra.0+0x260>
8020083c:	00098593          	mv	a1,s3
80200840:	000b0513          	mv	a0,s6
80200844:	005000ef          	jal	80201048 <__umodsi3>
80200848:	00050b93          	mv	s7,a0
8020084c:	00098593          	mv	a1,s3
80200850:	000b0513          	mv	a0,s6
80200854:	7ac000ef          	jal	80201000 <__hidden___udivsi3>
80200858:	00900d93          	li	s11,9
8020085c:	fd048793          	addi	a5,s1,-48
80200860:	00050d13          	mv	s10,a0
80200864:	00000713          	li	a4,0
80200868:	00000513          	li	a0,0
8020086c:	01900a93          	li	s5,25
80200870:	fff00c13          	li	s8,-1
80200874:	02fdee63          	bltu	s11,a5,802008b0 <_strtol_l.isra.0+0x128>
80200878:	00078493          	mv	s1,a5
8020087c:	0594d263          	bge	s1,s9,802008c0 <_strtol_l.isra.0+0x138>
80200880:	03870063          	beq	a4,s8,802008a0 <_strtol_l.isra.0+0x118>
80200884:	fff00713          	li	a4,-1
80200888:	00ad6c63          	bltu	s10,a0,802008a0 <_strtol_l.isra.0+0x118>
8020088c:	10ad0e63          	beq	s10,a0,802009a8 <_strtol_l.isra.0+0x220>
80200890:	00098593          	mv	a1,s3
80200894:	740000ef          	jal	80200fd4 <__mulsi3>
80200898:	00a48533          	add	a0,s1,a0
8020089c:	00100713          	li	a4,1
802008a0:	00044483          	lbu	s1,0(s0)
802008a4:	00140413          	addi	s0,s0,1
802008a8:	fd048793          	addi	a5,s1,-48
802008ac:	fcfdf6e3          	bgeu	s11,a5,80200878 <_strtol_l.isra.0+0xf0>
802008b0:	fbf48793          	addi	a5,s1,-65
802008b4:	0efae263          	bltu	s5,a5,80200998 <_strtol_l.isra.0+0x210>
802008b8:	fc948493          	addi	s1,s1,-55
802008bc:	fd94c2e3          	blt	s1,s9,80200880 <_strtol_l.isra.0+0xf8>
802008c0:	fff00793          	li	a5,-1
802008c4:	10f70263          	beq	a4,a5,802009c8 <_strtol_l.isra.0+0x240>
802008c8:	00c12783          	lw	a5,12(sp)
802008cc:	00078463          	beqz	a5,802008d4 <_strtol_l.isra.0+0x14c>
802008d0:	40a00533          	neg	a0,a0
802008d4:	000a0663          	beqz	s4,802008e0 <_strtol_l.isra.0+0x158>
802008d8:	12071663          	bnez	a4,80200a04 <_strtol_l.isra.0+0x27c>
802008dc:	012a2023          	sw	s2,0(s4)
802008e0:	04812403          	lw	s0,72(sp)
802008e4:	04c12083          	lw	ra,76(sp)
802008e8:	04412483          	lw	s1,68(sp)
802008ec:	04012903          	lw	s2,64(sp)
802008f0:	03c12983          	lw	s3,60(sp)
802008f4:	03812a03          	lw	s4,56(sp)
802008f8:	03412a83          	lw	s5,52(sp)
802008fc:	03012b03          	lw	s6,48(sp)
80200900:	02c12b83          	lw	s7,44(sp)
80200904:	02812c03          	lw	s8,40(sp)
80200908:	02412c83          	lw	s9,36(sp)
8020090c:	02012d03          	lw	s10,32(sp)
80200910:	01c12d83          	lw	s11,28(sp)
80200914:	05010113          	addi	sp,sp,80
80200918:	00008067          	ret
8020091c:	04812403          	lw	s0,72(sp)
80200920:	04012903          	lw	s2,64(sp)
80200924:	03c12983          	lw	s3,60(sp)
80200928:	03812a03          	lw	s4,56(sp)
8020092c:	02412c83          	lw	s9,36(sp)
80200930:	440000ef          	jal	80200d70 <__errno>
80200934:	04c12083          	lw	ra,76(sp)
80200938:	01600793          	li	a5,22
8020093c:	00f52023          	sw	a5,0(a0)
80200940:	00000513          	li	a0,0
80200944:	05010113          	addi	sp,sp,80
80200948:	00008067          	ret
8020094c:	00012623          	sw	zero,12(sp)
80200950:	00044483          	lbu	s1,0(s0)
80200954:	fffb0b13          	addi	s6,s6,-1
80200958:	00268413          	addi	s0,a3,2
8020095c:	ec0c88e3          	beqz	s9,8020082c <_strtol_l.isra.0+0xa4>
80200960:	01000793          	li	a5,16
80200964:	ecfc9ce3          	bne	s9,a5,8020083c <_strtol_l.isra.0+0xb4>
80200968:	03000793          	li	a5,48
8020096c:	000c8993          	mv	s3,s9
80200970:	ecf496e3          	bne	s1,a5,8020083c <_strtol_l.isra.0+0xb4>
80200974:	00044783          	lbu	a5,0(s0)
80200978:	05800713          	li	a4,88
8020097c:	0df7f793          	andi	a5,a5,223
80200980:	eae79ee3          	bne	a5,a4,8020083c <_strtol_l.isra.0+0xb4>
80200984:	01000993          	li	s3,16
80200988:	00144483          	lbu	s1,1(s0)
8020098c:	00098c93          	mv	s9,s3
80200990:	00240413          	addi	s0,s0,2
80200994:	ea9ff06f          	j	8020083c <_strtol_l.isra.0+0xb4>
80200998:	f9f48793          	addi	a5,s1,-97
8020099c:	f2fae2e3          	bltu	s5,a5,802008c0 <_strtol_l.isra.0+0x138>
802009a0:	fa948493          	addi	s1,s1,-87
802009a4:	ed9ff06f          	j	8020087c <_strtol_l.isra.0+0xf4>
802009a8:	ee9bcce3          	blt	s7,s1,802008a0 <_strtol_l.isra.0+0x118>
802009ac:	ee5ff06f          	j	80200890 <_strtol_l.isra.0+0x108>
802009b0:	00100793          	li	a5,1
802009b4:	00044483          	lbu	s1,0(s0)
802009b8:	80000b37          	lui	s6,0x80000
802009bc:	00268413          	addi	s0,a3,2
802009c0:	00f12623          	sw	a5,12(sp)
802009c4:	e65ff06f          	j	80200828 <_strtol_l.isra.0+0xa0>
802009c8:	00812703          	lw	a4,8(sp)
802009cc:	02200793          	li	a5,34
802009d0:	000b0513          	mv	a0,s6
802009d4:	00f72023          	sw	a5,0(a4)
802009d8:	f00a04e3          	beqz	s4,802008e0 <_strtol_l.isra.0+0x158>
802009dc:	fff40913          	addi	s2,s0,-1
802009e0:	000b0513          	mv	a0,s6
802009e4:	ef9ff06f          	j	802008dc <_strtol_l.isra.0+0x154>
802009e8:	00044783          	lbu	a5,0(s0)
802009ec:	05800713          	li	a4,88
802009f0:	0df7f793          	andi	a5,a5,223
802009f4:	f8e788e3          	beq	a5,a4,80200984 <_strtol_l.isra.0+0x1fc>
802009f8:	00800993          	li	s3,8
802009fc:	00098c93          	mv	s9,s3
80200a00:	e3dff06f          	j	8020083c <_strtol_l.isra.0+0xb4>
80200a04:	00050b13          	mv	s6,a0
80200a08:	fd5ff06f          	j	802009dc <_strtol_l.isra.0+0x254>

80200a0c <strtol>:
strtol():
80200a0c:	00050713          	mv	a4,a0
80200a10:	00008517          	auipc	a0,0x8
80200a14:	86c52503          	lw	a0,-1940(a0) # 8020827c <_impure_ptr>
80200a18:	00058793          	mv	a5,a1
80200a1c:	00060693          	mv	a3,a2
80200a20:	00070593          	mv	a1,a4
80200a24:	00078613          	mv	a2,a5
80200a28:	d61ff06f          	j	80200788 <_strtol_l.isra.0>

80200a2c <__utoa>:
__utoa():
80200a2c:	00007797          	auipc	a5,0x7
80200a30:	60078793          	addi	a5,a5,1536 # 8020802c <__modsi3+0x6fb0>
80200a34:	0007a283          	lw	t0,0(a5)
80200a38:	0047af83          	lw	t6,4(a5)
80200a3c:	0087af03          	lw	t5,8(a5)
80200a40:	00c7ae83          	lw	t4,12(a5)
80200a44:	0107ae03          	lw	t3,16(a5)
80200a48:	0147a303          	lw	t1,20(a5)
80200a4c:	0187a883          	lw	a7,24(a5)
80200a50:	01c7a803          	lw	a6,28(a5)
80200a54:	0207a683          	lw	a3,32(a5)
80200a58:	00007797          	auipc	a5,0x7
80200a5c:	5f87c783          	lbu	a5,1528(a5) # 80208050 <__modsi3+0x6fd4>
80200a60:	fb010113          	addi	sp,sp,-80
80200a64:	03512a23          	sw	s5,52(sp)
80200a68:	02f10623          	sb	a5,44(sp)
80200a6c:	04112623          	sw	ra,76(sp)
80200a70:	ffe60713          	addi	a4,a2,-2
80200a74:	00512423          	sw	t0,8(sp)
80200a78:	01f12623          	sw	t6,12(sp)
80200a7c:	01e12823          	sw	t5,16(sp)
80200a80:	01d12a23          	sw	t4,20(sp)
80200a84:	01c12c23          	sw	t3,24(sp)
80200a88:	00612e23          	sw	t1,28(sp)
80200a8c:	03112023          	sw	a7,32(sp)
80200a90:	03012223          	sw	a6,36(sp)
80200a94:	02d12423          	sw	a3,40(sp)
80200a98:	02200793          	li	a5,34
80200a9c:	00058a93          	mv	s5,a1
80200aa0:	0ce7e463          	bltu	a5,a4,80200b68 <__utoa+0x13c>
80200aa4:	04812423          	sw	s0,72(sp)
80200aa8:	04912223          	sw	s1,68(sp)
80200aac:	05212023          	sw	s2,64(sp)
80200ab0:	03312e23          	sw	s3,60(sp)
80200ab4:	03412c23          	sw	s4,56(sp)
80200ab8:	03612823          	sw	s6,48(sp)
80200abc:	00060493          	mv	s1,a2
80200ac0:	00050413          	mv	s0,a0
80200ac4:	00000913          	li	s2,0
80200ac8:	00048593          	mv	a1,s1
80200acc:	00040513          	mv	a0,s0
80200ad0:	578000ef          	jal	80201048 <__umodsi3>
80200ad4:	00250533          	add	a0,a0,sp
80200ad8:	00854783          	lbu	a5,8(a0)
80200adc:	00090993          	mv	s3,s2
80200ae0:	00190913          	addi	s2,s2,1
80200ae4:	012a8a33          	add	s4,s5,s2
80200ae8:	00040513          	mv	a0,s0
80200aec:	00048593          	mv	a1,s1
80200af0:	fefa0fa3          	sb	a5,-1(s4)
80200af4:	00040b13          	mv	s6,s0
80200af8:	508000ef          	jal	80201000 <__hidden___udivsi3>
80200afc:	00050413          	mv	s0,a0
80200b00:	fc9b74e3          	bgeu	s6,s1,80200ac8 <__utoa+0x9c>
80200b04:	000a0023          	sb	zero,0(s4)
80200b08:	02098a63          	beqz	s3,80200b3c <__utoa+0x110>
80200b0c:	000a8693          	mv	a3,s5
80200b10:	013a8733          	add	a4,s5,s3
80200b14:	00000793          	li	a5,0
80200b18:	00074583          	lbu	a1,0(a4)
80200b1c:	0006c603          	lbu	a2,0(a3)
80200b20:	00178793          	addi	a5,a5,1
80200b24:	00b68023          	sb	a1,0(a3)
80200b28:	00c70023          	sb	a2,0(a4)
80200b2c:	40f98633          	sub	a2,s3,a5
80200b30:	00168693          	addi	a3,a3,1
80200b34:	fff70713          	addi	a4,a4,-1
80200b38:	fec7c0e3          	blt	a5,a2,80200b18 <__utoa+0xec>
80200b3c:	04812403          	lw	s0,72(sp)
80200b40:	04c12083          	lw	ra,76(sp)
80200b44:	04412483          	lw	s1,68(sp)
80200b48:	04012903          	lw	s2,64(sp)
80200b4c:	03c12983          	lw	s3,60(sp)
80200b50:	03812a03          	lw	s4,56(sp)
80200b54:	03012b03          	lw	s6,48(sp)
80200b58:	000a8513          	mv	a0,s5
80200b5c:	03412a83          	lw	s5,52(sp)
80200b60:	05010113          	addi	sp,sp,80
80200b64:	00008067          	ret
80200b68:	00058023          	sb	zero,0(a1)
80200b6c:	04c12083          	lw	ra,76(sp)
80200b70:	03412a83          	lw	s5,52(sp)
80200b74:	00000513          	li	a0,0
80200b78:	05010113          	addi	sp,sp,80
80200b7c:	00008067          	ret

80200b80 <strcat>:
strcat():
80200b80:	ff010113          	addi	sp,sp,-16
80200b84:	00812423          	sw	s0,8(sp)
80200b88:	00112623          	sw	ra,12(sp)
80200b8c:	00357793          	andi	a5,a0,3
80200b90:	00050413          	mv	s0,a0
80200b94:	06079663          	bnez	a5,80200c00 <strcat+0x80>
80200b98:	00052703          	lw	a4,0(a0)
80200b9c:	feff0637          	lui	a2,0xfeff0
80200ba0:	eff60613          	addi	a2,a2,-257 # fefefeff <__heap_end+0x7ecefeff>
80200ba4:	00c707b3          	add	a5,a4,a2
80200ba8:	808086b7          	lui	a3,0x80808
80200bac:	fff74713          	not	a4,a4
80200bb0:	00e7f7b3          	and	a5,a5,a4
80200bb4:	08068693          	addi	a3,a3,128 # 80808080 <__heap_end+0x508080>
80200bb8:	00d7f7b3          	and	a5,a5,a3
80200bbc:	04079263          	bnez	a5,80200c00 <strcat+0x80>
80200bc0:	00452703          	lw	a4,4(a0)
80200bc4:	00450513          	addi	a0,a0,4
80200bc8:	00c707b3          	add	a5,a4,a2
80200bcc:	fff74713          	not	a4,a4
80200bd0:	00e7f7b3          	and	a5,a5,a4
80200bd4:	00d7f7b3          	and	a5,a5,a3
80200bd8:	02079463          	bnez	a5,80200c00 <strcat+0x80>
80200bdc:	00452703          	lw	a4,4(a0)
80200be0:	00450513          	addi	a0,a0,4
80200be4:	00c707b3          	add	a5,a4,a2
80200be8:	fff74713          	not	a4,a4
80200bec:	00e7f7b3          	and	a5,a5,a4
80200bf0:	00d7f7b3          	and	a5,a5,a3
80200bf4:	fc0786e3          	beqz	a5,80200bc0 <strcat+0x40>
80200bf8:	0080006f          	j	80200c00 <strcat+0x80>
80200bfc:	00150513          	addi	a0,a0,1
80200c00:	00054783          	lbu	a5,0(a0)
80200c04:	fe079ce3          	bnez	a5,80200bfc <strcat+0x7c>
80200c08:	328000ef          	jal	80200f30 <strcpy>
80200c0c:	00c12083          	lw	ra,12(sp)
80200c10:	00040513          	mv	a0,s0
80200c14:	00812403          	lw	s0,8(sp)
80200c18:	01010113          	addi	sp,sp,16
80200c1c:	00008067          	ret

80200c20 <strncat>:
strncat():
80200c20:	00357713          	andi	a4,a0,3
80200c24:	00050793          	mv	a5,a0
80200c28:	06071663          	bnez	a4,80200c94 <strncat+0x74>
80200c2c:	00052683          	lw	a3,0(a0)
80200c30:	feff08b7          	lui	a7,0xfeff0
80200c34:	eff88893          	addi	a7,a7,-257 # fefefeff <__heap_end+0x7ecefeff>
80200c38:	01168733          	add	a4,a3,a7
80200c3c:	80808837          	lui	a6,0x80808
80200c40:	fff6c693          	not	a3,a3
80200c44:	00d77733          	and	a4,a4,a3
80200c48:	08080813          	addi	a6,a6,128 # 80808080 <__heap_end+0x508080>
80200c4c:	01077733          	and	a4,a4,a6
80200c50:	04071263          	bnez	a4,80200c94 <strncat+0x74>
80200c54:	0047a683          	lw	a3,4(a5)
80200c58:	00478793          	addi	a5,a5,4
80200c5c:	01168733          	add	a4,a3,a7
80200c60:	fff6c693          	not	a3,a3
80200c64:	00d77733          	and	a4,a4,a3
80200c68:	01077733          	and	a4,a4,a6
80200c6c:	02071463          	bnez	a4,80200c94 <strncat+0x74>
80200c70:	0047a683          	lw	a3,4(a5)
80200c74:	00478793          	addi	a5,a5,4
80200c78:	01168733          	add	a4,a3,a7
80200c7c:	fff6c693          	not	a3,a3
80200c80:	00d77733          	and	a4,a4,a3
80200c84:	01077733          	and	a4,a4,a6
80200c88:	fc0706e3          	beqz	a4,80200c54 <strncat+0x34>
80200c8c:	0080006f          	j	80200c94 <strncat+0x74>
80200c90:	00178793          	addi	a5,a5,1
80200c94:	0007c703          	lbu	a4,0(a5)
80200c98:	fe071ce3          	bnez	a4,80200c90 <strncat+0x70>
80200c9c:	00c786b3          	add	a3,a5,a2
80200ca0:	02060463          	beqz	a2,80200cc8 <strncat+0xa8>
80200ca4:	0005c703          	lbu	a4,0(a1)
80200ca8:	00178793          	addi	a5,a5,1
80200cac:	00158593          	addi	a1,a1,1
80200cb0:	fee78fa3          	sb	a4,-1(a5)
80200cb4:	00070863          	beqz	a4,80200cc4 <strncat+0xa4>
80200cb8:	fef696e3          	bne	a3,a5,80200ca4 <strncat+0x84>
80200cbc:	00068023          	sb	zero,0(a3)
80200cc0:	00008067          	ret
80200cc4:	00008067          	ret
80200cc8:	00008067          	ret

80200ccc <strncmp>:
strncmp():
80200ccc:	08060a63          	beqz	a2,80200d60 <strncmp+0x94>
80200cd0:	00b567b3          	or	a5,a0,a1
80200cd4:	0037f793          	andi	a5,a5,3
80200cd8:	04079a63          	bnez	a5,80200d2c <strncmp+0x60>
80200cdc:	feff0e37          	lui	t3,0xfeff0
80200ce0:	80808337          	lui	t1,0x80808
80200ce4:	00300893          	li	a7,3
80200ce8:	effe0e13          	addi	t3,t3,-257 # fefefeff <__heap_end+0x7ecefeff>
80200cec:	08030313          	addi	t1,t1,128 # 80808080 <__heap_end+0x508080>
80200cf0:	02c8e063          	bltu	a7,a2,80200d10 <strncmp+0x44>
80200cf4:	0380006f          	j	80200d2c <strncmp+0x60>
80200cf8:	ffc60613          	addi	a2,a2,-4
80200cfc:	06060263          	beqz	a2,80200d60 <strncmp+0x94>
80200d00:	06079063          	bnez	a5,80200d60 <strncmp+0x94>
80200d04:	00450513          	addi	a0,a0,4
80200d08:	00458593          	addi	a1,a1,4
80200d0c:	02c8f063          	bgeu	a7,a2,80200d2c <strncmp+0x60>
80200d10:	00052703          	lw	a4,0(a0)
80200d14:	0005a683          	lw	a3,0(a1)
80200d18:	01c707b3          	add	a5,a4,t3
80200d1c:	fff74813          	not	a6,a4
80200d20:	0107f7b3          	and	a5,a5,a6
80200d24:	0067f7b3          	and	a5,a5,t1
80200d28:	fcd708e3          	beq	a4,a3,80200cf8 <strncmp+0x2c>
80200d2c:	00054783          	lbu	a5,0(a0)
80200d30:	0005c703          	lbu	a4,0(a1)
80200d34:	fff60613          	addi	a2,a2,-1
80200d38:	00c50633          	add	a2,a0,a2
80200d3c:	00e78e63          	beq	a5,a4,80200d58 <strncmp+0x8c>
80200d40:	0280006f          	j	80200d68 <strncmp+0x9c>
80200d44:	00150513          	addi	a0,a0,1
80200d48:	00078c63          	beqz	a5,80200d60 <strncmp+0x94>
80200d4c:	00054783          	lbu	a5,0(a0)
80200d50:	0005c703          	lbu	a4,0(a1)
80200d54:	00e79a63          	bne	a5,a4,80200d68 <strncmp+0x9c>
80200d58:	00158593          	addi	a1,a1,1
80200d5c:	fea614e3          	bne	a2,a0,80200d44 <strncmp+0x78>
80200d60:	00000513          	li	a0,0
80200d64:	00008067          	ret
80200d68:	40e78533          	sub	a0,a5,a4
80200d6c:	00008067          	ret

80200d70 <__errno>:
__errno():
80200d70:	00007517          	auipc	a0,0x7
80200d74:	50c52503          	lw	a0,1292(a0) # 8020827c <_impure_ptr>
80200d78:	00008067          	ret

80200d7c <memcpy>:
memcpy():
80200d7c:	00a5c7b3          	xor	a5,a1,a0
80200d80:	0037f793          	andi	a5,a5,3
80200d84:	00c508b3          	add	a7,a0,a2
80200d88:	06079663          	bnez	a5,80200df4 <memcpy+0x78>
80200d8c:	00300793          	li	a5,3
80200d90:	06c7f263          	bgeu	a5,a2,80200df4 <memcpy+0x78>
80200d94:	00357793          	andi	a5,a0,3
80200d98:	00050713          	mv	a4,a0
80200d9c:	0c079a63          	bnez	a5,80200e70 <memcpy+0xf4>
80200da0:	ffc8f613          	andi	a2,a7,-4
80200da4:	40e606b3          	sub	a3,a2,a4
80200da8:	02000793          	li	a5,32
80200dac:	06d7c463          	blt	a5,a3,80200e14 <memcpy+0x98>
80200db0:	00058693          	mv	a3,a1
80200db4:	00070793          	mv	a5,a4
80200db8:	02c77a63          	bgeu	a4,a2,80200dec <memcpy+0x70>
80200dbc:	0006a803          	lw	a6,0(a3)
80200dc0:	00478793          	addi	a5,a5,4
80200dc4:	00468693          	addi	a3,a3,4
80200dc8:	ff07ae23          	sw	a6,-4(a5)
80200dcc:	fec7e8e3          	bltu	a5,a2,80200dbc <memcpy+0x40>
80200dd0:	fff60613          	addi	a2,a2,-1
80200dd4:	40e60633          	sub	a2,a2,a4
80200dd8:	ffc67613          	andi	a2,a2,-4
80200ddc:	00458593          	addi	a1,a1,4
80200de0:	00470713          	addi	a4,a4,4
80200de4:	00c585b3          	add	a1,a1,a2
80200de8:	00c70733          	add	a4,a4,a2
80200dec:	01176863          	bltu	a4,a7,80200dfc <memcpy+0x80>
80200df0:	00008067          	ret
80200df4:	00050713          	mv	a4,a0
80200df8:	ff157ce3          	bgeu	a0,a7,80200df0 <memcpy+0x74>
80200dfc:	0005c783          	lbu	a5,0(a1)
80200e00:	00170713          	addi	a4,a4,1
80200e04:	00158593          	addi	a1,a1,1
80200e08:	fef70fa3          	sb	a5,-1(a4)
80200e0c:	fee898e3          	bne	a7,a4,80200dfc <memcpy+0x80>
80200e10:	00008067          	ret
80200e14:	0205a683          	lw	a3,32(a1)
80200e18:	0005a383          	lw	t2,0(a1)
80200e1c:	0045a283          	lw	t0,4(a1)
80200e20:	0085af83          	lw	t6,8(a1)
80200e24:	00c5af03          	lw	t5,12(a1)
80200e28:	0105ae83          	lw	t4,16(a1)
80200e2c:	0145ae03          	lw	t3,20(a1)
80200e30:	0185a303          	lw	t1,24(a1)
80200e34:	01c5a803          	lw	a6,28(a1)
80200e38:	02470713          	addi	a4,a4,36
80200e3c:	fed72e23          	sw	a3,-4(a4)
80200e40:	fc772e23          	sw	t2,-36(a4)
80200e44:	40e606b3          	sub	a3,a2,a4
80200e48:	fe572023          	sw	t0,-32(a4)
80200e4c:	fff72223          	sw	t6,-28(a4)
80200e50:	ffe72423          	sw	t5,-24(a4)
80200e54:	ffd72623          	sw	t4,-20(a4)
80200e58:	ffc72823          	sw	t3,-16(a4)
80200e5c:	fe672a23          	sw	t1,-12(a4)
80200e60:	ff072c23          	sw	a6,-8(a4)
80200e64:	02458593          	addi	a1,a1,36
80200e68:	fad7c6e3          	blt	a5,a3,80200e14 <memcpy+0x98>
80200e6c:	f45ff06f          	j	80200db0 <memcpy+0x34>
80200e70:	0005c683          	lbu	a3,0(a1)
80200e74:	00170713          	addi	a4,a4,1
80200e78:	00377793          	andi	a5,a4,3
80200e7c:	fed70fa3          	sb	a3,-1(a4)
80200e80:	00158593          	addi	a1,a1,1
80200e84:	f0078ee3          	beqz	a5,80200da0 <memcpy+0x24>
80200e88:	0005c683          	lbu	a3,0(a1)
80200e8c:	00170713          	addi	a4,a4,1
80200e90:	00377793          	andi	a5,a4,3
80200e94:	fed70fa3          	sb	a3,-1(a4)
80200e98:	00158593          	addi	a1,a1,1
80200e9c:	fc079ae3          	bnez	a5,80200e70 <memcpy+0xf4>
80200ea0:	f01ff06f          	j	80200da0 <memcpy+0x24>

80200ea4 <strlen>:
strlen():
80200ea4:	00357793          	andi	a5,a0,3
80200ea8:	00050713          	mv	a4,a0
80200eac:	04079c63          	bnez	a5,80200f04 <strlen+0x60>
80200eb0:	7f7f86b7          	lui	a3,0x7f7f8
80200eb4:	f7f68693          	addi	a3,a3,-129 # 7f7f7f7f <app_entry-0xa08081>
80200eb8:	fff00593          	li	a1,-1
80200ebc:	00072603          	lw	a2,0(a4)
80200ec0:	00470713          	addi	a4,a4,4
80200ec4:	00d677b3          	and	a5,a2,a3
80200ec8:	00d787b3          	add	a5,a5,a3
80200ecc:	00c7e7b3          	or	a5,a5,a2
80200ed0:	00d7e7b3          	or	a5,a5,a3
80200ed4:	feb784e3          	beq	a5,a1,80200ebc <strlen+0x18>
80200ed8:	ffc74683          	lbu	a3,-4(a4)
80200edc:	40a707b3          	sub	a5,a4,a0
80200ee0:	04068463          	beqz	a3,80200f28 <strlen+0x84>
80200ee4:	ffd74683          	lbu	a3,-3(a4)
80200ee8:	02068c63          	beqz	a3,80200f20 <strlen+0x7c>
80200eec:	ffe74503          	lbu	a0,-2(a4)
80200ef0:	00a03533          	snez	a0,a0
80200ef4:	00f50533          	add	a0,a0,a5
80200ef8:	ffe50513          	addi	a0,a0,-2
80200efc:	00008067          	ret
80200f00:	fa0688e3          	beqz	a3,80200eb0 <strlen+0xc>
80200f04:	00074783          	lbu	a5,0(a4)
80200f08:	00170713          	addi	a4,a4,1
80200f0c:	00377693          	andi	a3,a4,3
80200f10:	fe0798e3          	bnez	a5,80200f00 <strlen+0x5c>
80200f14:	40a70733          	sub	a4,a4,a0
80200f18:	fff70513          	addi	a0,a4,-1
80200f1c:	00008067          	ret
80200f20:	ffd78513          	addi	a0,a5,-3
80200f24:	00008067          	ret
80200f28:	ffc78513          	addi	a0,a5,-4
80200f2c:	00008067          	ret

80200f30 <strcpy>:
strcpy():
80200f30:	00b567b3          	or	a5,a0,a1
80200f34:	0037f793          	andi	a5,a5,3
80200f38:	08079063          	bnez	a5,80200fb8 <strcpy+0x88>
80200f3c:	0005a703          	lw	a4,0(a1)
80200f40:	7f7f86b7          	lui	a3,0x7f7f8
80200f44:	f7f68693          	addi	a3,a3,-129 # 7f7f7f7f <app_entry-0xa08081>
80200f48:	00d77833          	and	a6,a4,a3
80200f4c:	00d80833          	add	a6,a6,a3
80200f50:	00e86833          	or	a6,a6,a4
80200f54:	00d86833          	or	a6,a6,a3
80200f58:	fff00793          	li	a5,-1
80200f5c:	00050613          	mv	a2,a0
80200f60:	02f81463          	bne	a6,a5,80200f88 <strcpy+0x58>
80200f64:	00458593          	addi	a1,a1,4
80200f68:	00e62023          	sw	a4,0(a2)
80200f6c:	0005a703          	lw	a4,0(a1)
80200f70:	00460613          	addi	a2,a2,4
80200f74:	00d777b3          	and	a5,a4,a3
80200f78:	00d787b3          	add	a5,a5,a3
80200f7c:	00e7e7b3          	or	a5,a5,a4
80200f80:	00d7e7b3          	or	a5,a5,a3
80200f84:	ff0780e3          	beq	a5,a6,80200f64 <strcpy+0x34>
80200f88:	0005c783          	lbu	a5,0(a1)
80200f8c:	0015c703          	lbu	a4,1(a1)
80200f90:	0025c683          	lbu	a3,2(a1)
80200f94:	00f60023          	sb	a5,0(a2)
80200f98:	00078a63          	beqz	a5,80200fac <strcpy+0x7c>
80200f9c:	00e600a3          	sb	a4,1(a2)
80200fa0:	00070663          	beqz	a4,80200fac <strcpy+0x7c>
80200fa4:	00d60123          	sb	a3,2(a2)
80200fa8:	00069463          	bnez	a3,80200fb0 <strcpy+0x80>
80200fac:	00008067          	ret
80200fb0:	000601a3          	sb	zero,3(a2)
80200fb4:	00008067          	ret
80200fb8:	00050793          	mv	a5,a0
80200fbc:	0005c703          	lbu	a4,0(a1)
80200fc0:	00178793          	addi	a5,a5,1
80200fc4:	00158593          	addi	a1,a1,1
80200fc8:	fee78fa3          	sb	a4,-1(a5)
80200fcc:	fe0718e3          	bnez	a4,80200fbc <strcpy+0x8c>
80200fd0:	00008067          	ret

80200fd4 <__mulsi3>:
__mulsi3():
80200fd4:	00050613          	mv	a2,a0
80200fd8:	00000513          	li	a0,0
80200fdc:	0015f693          	andi	a3,a1,1
80200fe0:	00068463          	beqz	a3,80200fe8 <__mulsi3+0x14>
80200fe4:	00c50533          	add	a0,a0,a2
80200fe8:	0015d593          	srli	a1,a1,0x1
80200fec:	00161613          	slli	a2,a2,0x1
80200ff0:	fe0596e3          	bnez	a1,80200fdc <__mulsi3+0x8>
80200ff4:	00008067          	ret

80200ff8 <__divsi3>:
__divsi3():
80200ff8:	06054063          	bltz	a0,80201058 <__umodsi3+0x10>
80200ffc:	0605c663          	bltz	a1,80201068 <__umodsi3+0x20>

80201000 <__hidden___udivsi3>:
80201000:	00058613          	mv	a2,a1
80201004:	00050593          	mv	a1,a0
80201008:	fff00513          	li	a0,-1
8020100c:	02060c63          	beqz	a2,80201044 <__hidden___udivsi3+0x44>
80201010:	00100693          	li	a3,1
80201014:	00b67a63          	bgeu	a2,a1,80201028 <__hidden___udivsi3+0x28>
80201018:	00c05863          	blez	a2,80201028 <__hidden___udivsi3+0x28>
8020101c:	00161613          	slli	a2,a2,0x1
80201020:	00169693          	slli	a3,a3,0x1
80201024:	feb66ae3          	bltu	a2,a1,80201018 <__hidden___udivsi3+0x18>
80201028:	00000513          	li	a0,0
8020102c:	00c5e663          	bltu	a1,a2,80201038 <__hidden___udivsi3+0x38>
80201030:	40c585b3          	sub	a1,a1,a2
80201034:	00d56533          	or	a0,a0,a3
80201038:	0016d693          	srli	a3,a3,0x1
8020103c:	00165613          	srli	a2,a2,0x1
80201040:	fe0696e3          	bnez	a3,8020102c <__hidden___udivsi3+0x2c>
80201044:	00008067          	ret

80201048 <__umodsi3>:
80201048:	00008293          	mv	t0,ra
8020104c:	fb5ff0ef          	jal	80201000 <__hidden___udivsi3>
80201050:	00058513          	mv	a0,a1
80201054:	00028067          	jr	t0
80201058:	40a00533          	neg	a0,a0
8020105c:	00b04863          	bgtz	a1,8020106c <__umodsi3+0x24>
80201060:	40b005b3          	neg	a1,a1
80201064:	f9dff06f          	j	80201000 <__hidden___udivsi3>
80201068:	40b005b3          	neg	a1,a1
8020106c:	00008293          	mv	t0,ra
80201070:	f91ff0ef          	jal	80201000 <__hidden___udivsi3>
80201074:	40a00533          	neg	a0,a0
80201078:	00028067          	jr	t0

8020107c <__modsi3>:
__modsi3():
8020107c:	00008293          	mv	t0,ra
80201080:	0005ca63          	bltz	a1,80201094 <__modsi3+0x18>
80201084:	00054c63          	bltz	a0,8020109c <__modsi3+0x20>
80201088:	f79ff0ef          	jal	80201000 <__hidden___udivsi3>
8020108c:	00058513          	mv	a0,a1
80201090:	00028067          	jr	t0
80201094:	40b005b3          	neg	a1,a1
80201098:	fe0558e3          	bgez	a0,80201088 <__modsi3+0xc>
8020109c:	40a00533          	neg	a0,a0
802010a0:	f61ff0ef          	jal	80201000 <__hidden___udivsi3>
802010a4:	40b00533          	neg	a0,a1
802010a8:	00028067          	jr	t0
